                              1 ;--------------------------------------------------------
                              2 ; File Created by SDCC : FreeWare ANSI-C Compiler
                              3 ; Version 2.2.1 Fri Sep 27 20:58:57 2024
                              4 
                              5 ;--------------------------------------------------------
                              6 	.module lcc303560
                              7 	
                              8 ;--------------------------------------------------------
                              9 ; Public variables in this module
                             10 ;--------------------------------------------------------
                             11 	.globl _main
                             12 	.globl _setupbullet
                             13 	.globl _setupbug
                             14 	.globl _setupship
                             15 	.globl _movegamecharacter
                             16 	.globl _performantdelay
                             17 	.globl _move_sprite
                             18 	.globl _set_sprite_tile
                             19 	.globl _set_sprite_data
                             20 	.globl _wait_vbl_done
                             21 	.globl _joypad
                             22 	.globl _spritesize
                             23 	.globl _bullet
                             24 	.globl _bug
                             25 	.globl _ship
                             26 	.globl _GameSprites
                             27 	.globl _main
                             28 	.globl _setupbullet
                             29 	.globl _setupbug
                             30 	.globl _setupship
                             31 	.globl _movegamecharacter
                             32 	.globl _performantdelay
                             33 ;--------------------------------------------------------
                             34 ; Externals used
                             35 ;--------------------------------------------------------
                             36 	.globl _IE_REG
                             37 	.globl _SVBK_REG
                             38 	.globl _OCPD_REG
                             39 	.globl _OCPS_REG
                             40 	.globl _BCPD_REG
                             41 	.globl _BCPS_REG
                             42 	.globl _RP_REG
                             43 	.globl _HDMA5_REG
                             44 	.globl _HDMA4_REG
                             45 	.globl _HDMA3_REG
                             46 	.globl _HDMA2_REG
                             47 	.globl _HDMA1_REG
                             48 	.globl _VBK_REG
                             49 	.globl _KEY1_REG
                             50 	.globl _WX_REG
                             51 	.globl _WY_REG
                             52 	.globl _OBP1_REG
                             53 	.globl _OBP0_REG
                             54 	.globl _BGP_REG
                             55 	.globl _DMA_REG
                             56 	.globl _LYC_REG
                             57 	.globl _LY_REG
                             58 	.globl _SCX_REG
                             59 	.globl _SCY_REG
                             60 	.globl _STAT_REG
                             61 	.globl _LCDC_REG
                             62 	.globl _NR52_REG
                             63 	.globl _NR51_REG
                             64 	.globl _NR50_REG
                             65 	.globl _NR44_REG
                             66 	.globl _NR43_REG
                             67 	.globl _NR42_REG
                             68 	.globl _NR41_REG
                             69 	.globl _NR34_REG
                             70 	.globl _NR33_REG
                             71 	.globl _NR32_REG
                             72 	.globl _NR31_REG
                             73 	.globl _NR30_REG
                             74 	.globl _NR24_REG
                             75 	.globl _NR23_REG
                             76 	.globl _NR22_REG
                             77 	.globl _NR21_REG
                             78 	.globl _NR14_REG
                             79 	.globl _NR13_REG
                             80 	.globl _NR12_REG
                             81 	.globl _NR11_REG
                             82 	.globl _NR10_REG
                             83 	.globl _IF_REG
                             84 	.globl _TAC_REG
                             85 	.globl _TMA_REG
                             86 	.globl _TIMA_REG
                             87 	.globl _DIV_REG
                             88 	.globl _SC_REG
                             89 	.globl _SB_REG
                             90 	.globl _P1_REG
                             91 	.globl __io_out
                             92 	.globl __io_in
                             93 	.globl __io_status
                             94 	.globl _sys_time
                             95 	.globl __cpu
                             96 ;--------------------------------------------------------
                             97 ; special function registers
                             98 ;--------------------------------------------------------
                             99 ;--------------------------------------------------------
                            100 ; special function bits 
                            101 ;--------------------------------------------------------
                            102 ;--------------------------------------------------------
                            103 ; internal ram data
                            104 ;--------------------------------------------------------
                            105 	.area _DATA
   0000                     106 _GameSprites::
   0000                     107 	.ds 192
   00C0                     108 _ship::
   00C0                     109 	.ds 8
   00C8                     110 _bug::
   00C8                     111 	.ds 8
   00D0                     112 _bullet::
   00D0                     113 	.ds 8
   00D8                     114 _spritesize::
   00D8                     115 	.ds 1
                            116 ;--------------------------------------------------------
                            117 ; overlayable items in internal ram 
                            118 ;--------------------------------------------------------
                            119 	.area _OVERLAY
                            120 ;--------------------------------------------------------
                            121 ; indirectly addressable internal ram data
                            122 ;--------------------------------------------------------
                            123 	.area _ISEG
                            124 ;--------------------------------------------------------
                            125 ; bit data
                            126 ;--------------------------------------------------------
                            127 	.area _BSEG
                            128 ;--------------------------------------------------------
                            129 ; external ram data
                            130 ;--------------------------------------------------------
                            131 	.area _XSEG
                            132 ;--------------------------------------------------------
                            133 ; global & static initialisations
                            134 ;--------------------------------------------------------
                            135 	.area _GSINIT
                            136 	.area _GSFINAL
                            137 	.area _GSINIT
                            138 ;	main.c 145
                            139 ; genAssign (pointer)
   0000 11 00 00            140 	ld	de,#_GameSprites + 0
   0003 3E 01               141 	ld	a,#0x01
   0005 12                  142 	ld	(de),a
                            143 ; genPlus
                            144 ; genPlusIncr
   0006 11 01 00            145 	ld	de,#_GameSprites + 0 + 1
                            146 ; genAssign (pointer)
   0009 3E 00               147 	ld	a,#0x00
   000B 12                  148 	ld	(de),a
                            149 ; genPlus
                            150 ; genPlusIncr
   000C 11 02 00            151 	ld	de,#_GameSprites + 0 + 2
                            152 ; genAssign (pointer)
   000F 3E 01               153 	ld	a,#0x01
   0011 12                  154 	ld	(de),a
                            155 ; genPlus
                            156 ; genPlusIncr
   0012 11 03 00            157 	ld	de,#_GameSprites + 0 + 3
                            158 ; genAssign (pointer)
   0015 3E 01               159 	ld	a,#0x01
   0017 12                  160 	ld	(de),a
                            161 ; genPlus
                            162 ; genPlusIncr
   0018 11 04 00            163 	ld	de,#_GameSprites + 0 + 4
                            164 ; genAssign (pointer)
   001B 3E 01               165 	ld	a,#0x01
   001D 12                  166 	ld	(de),a
                            167 ; genPlus
                            168 ; genPlusIncr
   001E 11 05 00            169 	ld	de,#_GameSprites + 0 + 5
                            170 ; genAssign (pointer)
   0021 3E 01               171 	ld	a,#0x01
   0023 12                  172 	ld	(de),a
                            173 ; genPlus
                            174 ; genPlusIncr
   0024 11 06 00            175 	ld	de,#_GameSprites + 0 + 6
                            176 ; genAssign (pointer)
   0027 3E 81               177 	ld	a,#0x81
   0029 12                  178 	ld	(de),a
                            179 ; genPlus
                            180 ; genPlusIncr
   002A 11 07 00            181 	ld	de,#_GameSprites + 0 + 7
                            182 ; genAssign (pointer)
   002D 3E 01               183 	ld	a,#0x01
   002F 12                  184 	ld	(de),a
                            185 ; genPlus
                            186 ; genPlusIncr
   0030 11 08 00            187 	ld	de,#_GameSprites + 0 + 8
                            188 ; genAssign (pointer)
   0033 3E 81               189 	ld	a,#0x81
   0035 12                  190 	ld	(de),a
                            191 ; genPlus
                            192 ; genPlusIncr
   0036 11 09 00            193 	ld	de,#_GameSprites + 0 + 9
                            194 ; genAssign (pointer)
   0039 3E 81               195 	ld	a,#0x81
   003B 12                  196 	ld	(de),a
                            197 ; genPlus
                            198 ; genPlusIncr
   003C 11 0A 00            199 	ld	de,#_GameSprites + 0 + 10
                            200 ; genAssign (pointer)
   003F 3E 81               201 	ld	a,#0x81
   0041 12                  202 	ld	(de),a
                            203 ; genPlus
                            204 ; genPlusIncr
   0042 11 0B 00            205 	ld	de,#_GameSprites + 0 + 11
                            206 ; genAssign (pointer)
   0045 3E 82               207 	ld	a,#0x82
   0047 12                  208 	ld	(de),a
                            209 ; genPlus
                            210 ; genPlusIncr
   0048 11 0C 00            211 	ld	de,#_GameSprites + 0 + 12
                            212 ; genAssign (pointer)
   004B 3E 03               213 	ld	a,#0x03
   004D 12                  214 	ld	(de),a
                            215 ; genPlus
                            216 ; genPlusIncr
   004E 11 0D 00            217 	ld	de,#_GameSprites + 0 + 13
                            218 ; genAssign (pointer)
   0051 3E E4               219 	ld	a,#0xE4
   0053 12                  220 	ld	(de),a
                            221 ; genPlus
                            222 ; genPlusIncr
   0054 11 0E 00            223 	ld	de,#_GameSprites + 0 + 14
                            224 ; genAssign (pointer)
   0057 3E 67               225 	ld	a,#0x67
   0059 12                  226 	ld	(de),a
                            227 ; genPlus
                            228 ; genPlusIncr
   005A 11 0F 00            229 	ld	de,#_GameSprites + 0 + 15
                            230 ; genAssign (pointer)
   005D 3E 99               231 	ld	a,#0x99
   005F 12                  232 	ld	(de),a
                            233 ; genPlus
                            234 ; genPlusIncr
   0060 11 10 00            235 	ld	de,#_GameSprites + 0 + 16
                            236 ; genAssign (pointer)
   0063 3E 80               237 	ld	a,#0x80
   0065 12                  238 	ld	(de),a
                            239 ; genPlus
                            240 ; genPlusIncr
   0066 11 11 00            241 	ld	de,#_GameSprites + 0 + 17
                            242 ; genAssign (pointer)
   0069 3E 00               243 	ld	a,#0x00
   006B 12                  244 	ld	(de),a
                            245 ; genPlus
                            246 ; genPlusIncr
   006C 11 12 00            247 	ld	de,#_GameSprites + 0 + 18
                            248 ; genAssign (pointer)
   006F 3E 80               249 	ld	a,#0x80
   0071 12                  250 	ld	(de),a
                            251 ; genPlus
                            252 ; genPlusIncr
   0072 11 13 00            253 	ld	de,#_GameSprites + 0 + 19
                            254 ; genAssign (pointer)
   0075 3E 80               255 	ld	a,#0x80
   0077 12                  256 	ld	(de),a
                            257 ; genPlus
                            258 ; genPlusIncr
   0078 11 14 00            259 	ld	de,#_GameSprites + 0 + 20
                            260 ; genAssign (pointer)
   007B 3E 80               261 	ld	a,#0x80
   007D 12                  262 	ld	(de),a
                            263 ; genPlus
                            264 ; genPlusIncr
   007E 11 15 00            265 	ld	de,#_GameSprites + 0 + 21
                            266 ; genAssign (pointer)
   0081 3E 80               267 	ld	a,#0x80
   0083 12                  268 	ld	(de),a
                            269 ; genPlus
                            270 ; genPlusIncr
   0084 11 16 00            271 	ld	de,#_GameSprites + 0 + 22
                            272 ; genAssign (pointer)
   0087 3E 81               273 	ld	a,#0x81
   0089 12                  274 	ld	(de),a
                            275 ; genPlus
                            276 ; genPlusIncr
   008A 11 17 00            277 	ld	de,#_GameSprites + 0 + 23
                            278 ; genAssign (pointer)
   008D 3E 80               279 	ld	a,#0x80
   008F 12                  280 	ld	(de),a
                            281 ; genPlus
                            282 ; genPlusIncr
   0090 11 18 00            283 	ld	de,#_GameSprites + 0 + 24
                            284 ; genAssign (pointer)
   0093 3E 81               285 	ld	a,#0x81
   0095 12                  286 	ld	(de),a
                            287 ; genPlus
                            288 ; genPlusIncr
   0096 11 19 00            289 	ld	de,#_GameSprites + 0 + 25
                            290 ; genAssign (pointer)
   0099 3E 81               291 	ld	a,#0x81
   009B 12                  292 	ld	(de),a
                            293 ; genPlus
                            294 ; genPlusIncr
   009C 11 1A 00            295 	ld	de,#_GameSprites + 0 + 26
                            296 ; genAssign (pointer)
   009F 3E 81               297 	ld	a,#0x81
   00A1 12                  298 	ld	(de),a
                            299 ; genPlus
                            300 ; genPlusIncr
   00A2 11 1B 00            301 	ld	de,#_GameSprites + 0 + 27
                            302 ; genAssign (pointer)
   00A5 3E 41               303 	ld	a,#0x41
   00A7 12                  304 	ld	(de),a
                            305 ; genPlus
                            306 ; genPlusIncr
   00A8 11 1C 00            307 	ld	de,#_GameSprites + 0 + 28
                            308 ; genAssign (pointer)
   00AB 3E C0               309 	ld	a,#0xC0
   00AD 12                  310 	ld	(de),a
                            311 ; genPlus
                            312 ; genPlusIncr
   00AE 11 1D 00            313 	ld	de,#_GameSprites + 0 + 29
                            314 ; genAssign (pointer)
   00B1 3E 27               315 	ld	a,#0x27
   00B3 12                  316 	ld	(de),a
                            317 ; genPlus
                            318 ; genPlusIncr
   00B4 11 1E 00            319 	ld	de,#_GameSprites + 0 + 30
                            320 ; genAssign (pointer)
   00B7 3E E6               321 	ld	a,#0xE6
   00B9 12                  322 	ld	(de),a
                            323 ; genPlus
                            324 ; genPlusIncr
   00BA 11 1F 00            325 	ld	de,#_GameSprites + 0 + 31
                            326 ; genAssign (pointer)
   00BD 3E 99               327 	ld	a,#0x99
   00BF 12                  328 	ld	(de),a
                            329 ; genPlus
                            330 ; genPlusIncr
   00C0 11 20 00            331 	ld	de,#_GameSprites + 0 + 32
                            332 ; genAssign (pointer)
   00C3 3E 7F               333 	ld	a,#0x7F
   00C5 12                  334 	ld	(de),a
                            335 ; genPlus
                            336 ; genPlusIncr
   00C6 11 21 00            337 	ld	de,#_GameSprites + 0 + 33
                            338 ; genAssign (pointer)
   00C9 3E 81               339 	ld	a,#0x81
   00CB 12                  340 	ld	(de),a
                            341 ; genPlus
                            342 ; genPlusIncr
   00CC 11 22 00            343 	ld	de,#_GameSprites + 0 + 34
                            344 ; genAssign (pointer)
   00CF 3E 3F               345 	ld	a,#0x3F
   00D1 12                  346 	ld	(de),a
                            347 ; genPlus
                            348 ; genPlusIncr
   00D2 11 23 00            349 	ld	de,#_GameSprites + 0 + 35
                            350 ; genAssign (pointer)
   00D5 3E 41               351 	ld	a,#0x41
   00D7 12                  352 	ld	(de),a
                            353 ; genPlus
                            354 ; genPlusIncr
   00D8 11 24 00            355 	ld	de,#_GameSprites + 0 + 36
                            356 ; genAssign (pointer)
   00DB 3E 0F               357 	ld	a,#0x0F
   00DD 12                  358 	ld	(de),a
                            359 ; genPlus
                            360 ; genPlusIncr
   00DE 11 25 00            361 	ld	de,#_GameSprites + 0 + 37
                            362 ; genAssign (pointer)
   00E1 3E 30               363 	ld	a,#0x30
   00E3 12                  364 	ld	(de),a
                            365 ; genPlus
                            366 ; genPlusIncr
   00E4 11 26 00            367 	ld	de,#_GameSprites + 0 + 38
                            368 ; genAssign (pointer)
   00E7 3E 01               369 	ld	a,#0x01
   00E9 12                  370 	ld	(de),a
                            371 ; genPlus
                            372 ; genPlusIncr
   00EA 11 27 00            373 	ld	de,#_GameSprites + 0 + 39
                            374 ; genAssign (pointer)
   00ED 3E 0E               375 	ld	a,#0x0E
   00EF 12                  376 	ld	(de),a
                            377 ; genPlus
                            378 ; genPlusIncr
   00F0 11 28 00            379 	ld	de,#_GameSprites + 0 + 40
                            380 ; genAssign (pointer)
   00F3 3E 08               381 	ld	a,#0x08
   00F5 12                  382 	ld	(de),a
                            383 ; genPlus
                            384 ; genPlusIncr
   00F6 11 29 00            385 	ld	de,#_GameSprites + 0 + 41
                            386 ; genAssign (pointer)
   00F9 3E 01               387 	ld	a,#0x01
   00FB 12                  388 	ld	(de),a
                            389 ; genPlus
                            390 ; genPlusIncr
   00FC 11 2A 00            391 	ld	de,#_GameSprites + 0 + 42
                            392 ; genAssign (pointer)
   00FF 3E 1C               393 	ld	a,#0x1C
   0101 12                  394 	ld	(de),a
                            395 ; genPlus
                            396 ; genPlusIncr
   0102 11 2B 00            397 	ld	de,#_GameSprites + 0 + 43
                            398 ; genAssign (pointer)
   0105 3E 00               399 	ld	a,#0x00
   0107 12                  400 	ld	(de),a
                            401 ; genPlus
                            402 ; genPlusIncr
   0108 11 2C 00            403 	ld	de,#_GameSprites + 0 + 44
                            404 ; genAssign (pointer)
   010B 3E 2A               405 	ld	a,#0x2A
   010D 12                  406 	ld	(de),a
                            407 ; genPlus
                            408 ; genPlusIncr
   010E 11 2D 00            409 	ld	de,#_GameSprites + 0 + 45
                            410 ; genAssign (pointer)
   0111 3E 00               411 	ld	a,#0x00
   0113 12                  412 	ld	(de),a
                            413 ; genPlus
                            414 ; genPlusIncr
   0114 11 2E 00            415 	ld	de,#_GameSprites + 0 + 46
                            416 ; genAssign (pointer)
   0117 3E 00               417 	ld	a,#0x00
   0119 12                  418 	ld	(de),a
                            419 ; genPlus
                            420 ; genPlusIncr
   011A 11 2F 00            421 	ld	de,#_GameSprites + 0 + 47
                            422 ; genAssign (pointer)
   011D 3E 00               423 	ld	a,#0x00
   011F 12                  424 	ld	(de),a
                            425 ; genPlus
                            426 ; genPlusIncr
   0120 11 30 00            427 	ld	de,#_GameSprites + 0 + 48
                            428 ; genAssign (pointer)
   0123 3E FE               429 	ld	a,#0xFE
   0125 12                  430 	ld	(de),a
                            431 ; genPlus
                            432 ; genPlusIncr
   0126 11 31 00            433 	ld	de,#_GameSprites + 0 + 49
                            434 ; genAssign (pointer)
   0129 3E 81               435 	ld	a,#0x81
   012B 12                  436 	ld	(de),a
                            437 ; genPlus
                            438 ; genPlusIncr
   012C 11 32 00            439 	ld	de,#_GameSprites + 0 + 50
                            440 ; genAssign (pointer)
   012F 3E FC               441 	ld	a,#0xFC
   0131 12                  442 	ld	(de),a
                            443 ; genPlus
                            444 ; genPlusIncr
   0132 11 33 00            445 	ld	de,#_GameSprites + 0 + 51
                            446 ; genAssign (pointer)
   0135 3E 82               447 	ld	a,#0x82
   0137 12                  448 	ld	(de),a
                            449 ; genPlus
                            450 ; genPlusIncr
   0138 11 34 00            451 	ld	de,#_GameSprites + 0 + 52
                            452 ; genAssign (pointer)
   013B 3E F0               453 	ld	a,#0xF0
   013D 12                  454 	ld	(de),a
                            455 ; genPlus
                            456 ; genPlusIncr
   013E 11 35 00            457 	ld	de,#_GameSprites + 0 + 53
                            458 ; genAssign (pointer)
   0141 3E 0C               459 	ld	a,#0x0C
   0143 12                  460 	ld	(de),a
                            461 ; genPlus
                            462 ; genPlusIncr
   0144 11 36 00            463 	ld	de,#_GameSprites + 0 + 54
                            464 ; genAssign (pointer)
   0147 3E 80               465 	ld	a,#0x80
   0149 12                  466 	ld	(de),a
                            467 ; genPlus
                            468 ; genPlusIncr
   014A 11 37 00            469 	ld	de,#_GameSprites + 0 + 55
                            470 ; genAssign (pointer)
   014D 3E 70               471 	ld	a,#0x70
   014F 12                  472 	ld	(de),a
                            473 ; genPlus
                            474 ; genPlusIncr
   0150 11 38 00            475 	ld	de,#_GameSprites + 0 + 56
                            476 ; genAssign (pointer)
   0153 3E 10               477 	ld	a,#0x10
   0155 12                  478 	ld	(de),a
                            479 ; genPlus
                            480 ; genPlusIncr
   0156 11 39 00            481 	ld	de,#_GameSprites + 0 + 57
                            482 ; genAssign (pointer)
   0159 3E 80               483 	ld	a,#0x80
   015B 12                  484 	ld	(de),a
                            485 ; genPlus
                            486 ; genPlusIncr
   015C 11 3A 00            487 	ld	de,#_GameSprites + 0 + 58
                            488 ; genAssign (pointer)
   015F 3E 38               489 	ld	a,#0x38
   0161 12                  490 	ld	(de),a
                            491 ; genPlus
                            492 ; genPlusIncr
   0162 11 3B 00            493 	ld	de,#_GameSprites + 0 + 59
                            494 ; genAssign (pointer)
   0165 3E 00               495 	ld	a,#0x00
   0167 12                  496 	ld	(de),a
                            497 ; genPlus
                            498 ; genPlusIncr
   0168 11 3C 00            499 	ld	de,#_GameSprites + 0 + 60
                            500 ; genAssign (pointer)
   016B 3E 54               501 	ld	a,#0x54
   016D 12                  502 	ld	(de),a
                            503 ; genPlus
                            504 ; genPlusIncr
   016E 11 3D 00            505 	ld	de,#_GameSprites + 0 + 61
                            506 ; genAssign (pointer)
   0171 3E 00               507 	ld	a,#0x00
   0173 12                  508 	ld	(de),a
                            509 ; genPlus
                            510 ; genPlusIncr
   0174 11 3E 00            511 	ld	de,#_GameSprites + 0 + 62
                            512 ; genAssign (pointer)
   0177 3E 00               513 	ld	a,#0x00
   0179 12                  514 	ld	(de),a
                            515 ; genPlus
                            516 ; genPlusIncr
   017A 11 3F 00            517 	ld	de,#_GameSprites + 0 + 63
                            518 ; genAssign (pointer)
   017D 3E 00               519 	ld	a,#0x00
   017F 12                  520 	ld	(de),a
                            521 ; genPlus
                            522 ; genPlusIncr
   0180 11 40 00            523 	ld	de,#_GameSprites + 0 + 64
                            524 ; genAssign (pointer)
   0183 3E 80               525 	ld	a,#0x80
   0185 12                  526 	ld	(de),a
                            527 ; genPlus
                            528 ; genPlusIncr
   0186 11 41 00            529 	ld	de,#_GameSprites + 0 + 65
                            530 ; genAssign (pointer)
   0189 3E 00               531 	ld	a,#0x00
   018B 12                  532 	ld	(de),a
                            533 ; genPlus
                            534 ; genPlusIncr
   018C 11 42 00            535 	ld	de,#_GameSprites + 0 + 66
                            536 ; genAssign (pointer)
   018F 3E 80               537 	ld	a,#0x80
   0191 12                  538 	ld	(de),a
                            539 ; genPlus
                            540 ; genPlusIncr
   0192 11 43 00            541 	ld	de,#_GameSprites + 0 + 67
                            542 ; genAssign (pointer)
   0195 3E 00               543 	ld	a,#0x00
   0197 12                  544 	ld	(de),a
                            545 ; genPlus
                            546 ; genPlusIncr
   0198 11 44 00            547 	ld	de,#_GameSprites + 0 + 68
                            548 ; genAssign (pointer)
   019B 3E 80               549 	ld	a,#0x80
   019D 12                  550 	ld	(de),a
                            551 ; genPlus
                            552 ; genPlusIncr
   019E 11 45 00            553 	ld	de,#_GameSprites + 0 + 69
                            554 ; genAssign (pointer)
   01A1 3E 00               555 	ld	a,#0x00
   01A3 12                  556 	ld	(de),a
                            557 ; genPlus
                            558 ; genPlusIncr
   01A4 11 46 00            559 	ld	de,#_GameSprites + 0 + 70
                            560 ; genAssign (pointer)
   01A7 3E 80               561 	ld	a,#0x80
   01A9 12                  562 	ld	(de),a
                            563 ; genPlus
                            564 ; genPlusIncr
   01AA 11 47 00            565 	ld	de,#_GameSprites + 0 + 71
                            566 ; genAssign (pointer)
   01AD 3E 00               567 	ld	a,#0x00
   01AF 12                  568 	ld	(de),a
                            569 ; genPlus
                            570 ; genPlusIncr
   01B0 11 48 00            571 	ld	de,#_GameSprites + 0 + 72
                            572 ; genAssign (pointer)
   01B3 3E 40               573 	ld	a,#0x40
   01B5 12                  574 	ld	(de),a
                            575 ; genPlus
                            576 ; genPlusIncr
   01B6 11 49 00            577 	ld	de,#_GameSprites + 0 + 73
                            578 ; genAssign (pointer)
   01B9 3E 07               579 	ld	a,#0x07
   01BB 12                  580 	ld	(de),a
                            581 ; genPlus
                            582 ; genPlusIncr
   01BC 11 4A 00            583 	ld	de,#_GameSprites + 0 + 74
                            584 ; genAssign (pointer)
   01BF 3E 47               585 	ld	a,#0x47
   01C1 12                  586 	ld	(de),a
                            587 ; genPlus
                            588 ; genPlusIncr
   01C2 11 4B 00            589 	ld	de,#_GameSprites + 0 + 75
                            590 ; genAssign (pointer)
   01C5 3E 0F               591 	ld	a,#0x0F
   01C7 12                  592 	ld	(de),a
                            593 ; genPlus
                            594 ; genPlusIncr
   01C8 11 4C 00            595 	ld	de,#_GameSprites + 0 + 76
                            596 ; genAssign (pointer)
   01CB 3E 3F               597 	ld	a,#0x3F
   01CD 12                  598 	ld	(de),a
                            599 ; genPlus
                            600 ; genPlusIncr
   01CE 11 4D 00            601 	ld	de,#_GameSprites + 0 + 77
                            602 ; genAssign (pointer)
   01D1 3E 0F               603 	ld	a,#0x0F
   01D3 12                  604 	ld	(de),a
                            605 ; genPlus
                            606 ; genPlusIncr
   01D4 11 4E 00            607 	ld	de,#_GameSprites + 0 + 78
                            608 ; genAssign (pointer)
   01D7 3E 0F               609 	ld	a,#0x0F
   01D9 12                  610 	ld	(de),a
                            611 ; genPlus
                            612 ; genPlusIncr
   01DA 11 4F 00            613 	ld	de,#_GameSprites + 0 + 79
                            614 ; genAssign (pointer)
   01DD 3E 1F               615 	ld	a,#0x1F
   01DF 12                  616 	ld	(de),a
                            617 ; genPlus
                            618 ; genPlusIncr
   01E0 11 50 00            619 	ld	de,#_GameSprites + 0 + 80
                            620 ; genAssign (pointer)
   01E3 3E 01               621 	ld	a,#0x01
   01E5 12                  622 	ld	(de),a
                            623 ; genPlus
                            624 ; genPlusIncr
   01E6 11 51 00            625 	ld	de,#_GameSprites + 0 + 81
                            626 ; genAssign (pointer)
   01E9 3E 00               627 	ld	a,#0x00
   01EB 12                  628 	ld	(de),a
                            629 ; genPlus
                            630 ; genPlusIncr
   01EC 11 52 00            631 	ld	de,#_GameSprites + 0 + 82
                            632 ; genAssign (pointer)
   01EF 3E 01               633 	ld	a,#0x01
   01F1 12                  634 	ld	(de),a
                            635 ; genPlus
                            636 ; genPlusIncr
   01F2 11 53 00            637 	ld	de,#_GameSprites + 0 + 83
                            638 ; genAssign (pointer)
   01F5 3E 00               639 	ld	a,#0x00
   01F7 12                  640 	ld	(de),a
                            641 ; genPlus
                            642 ; genPlusIncr
   01F8 11 54 00            643 	ld	de,#_GameSprites + 0 + 84
                            644 ; genAssign (pointer)
   01FB 3E 01               645 	ld	a,#0x01
   01FD 12                  646 	ld	(de),a
                            647 ; genPlus
                            648 ; genPlusIncr
   01FE 11 55 00            649 	ld	de,#_GameSprites + 0 + 85
                            650 ; genAssign (pointer)
   0201 3E 00               651 	ld	a,#0x00
   0203 12                  652 	ld	(de),a
                            653 ; genPlus
                            654 ; genPlusIncr
   0204 11 56 00            655 	ld	de,#_GameSprites + 0 + 86
                            656 ; genAssign (pointer)
   0207 3E 01               657 	ld	a,#0x01
   0209 12                  658 	ld	(de),a
                            659 ; genPlus
                            660 ; genPlusIncr
   020A 11 57 00            661 	ld	de,#_GameSprites + 0 + 87
                            662 ; genAssign (pointer)
   020D 3E 00               663 	ld	a,#0x00
   020F 12                  664 	ld	(de),a
                            665 ; genPlus
                            666 ; genPlusIncr
   0210 11 58 00            667 	ld	de,#_GameSprites + 0 + 88
                            668 ; genAssign (pointer)
   0213 3E 02               669 	ld	a,#0x02
   0215 12                  670 	ld	(de),a
                            671 ; genPlus
                            672 ; genPlusIncr
   0216 11 59 00            673 	ld	de,#_GameSprites + 0 + 89
                            674 ; genAssign (pointer)
   0219 3E E0               675 	ld	a,#0xE0
   021B 12                  676 	ld	(de),a
                            677 ; genPlus
                            678 ; genPlusIncr
   021C 11 5A 00            679 	ld	de,#_GameSprites + 0 + 90
                            680 ; genAssign (pointer)
   021F 3E E2               681 	ld	a,#0xE2
   0221 12                  682 	ld	(de),a
                            683 ; genPlus
                            684 ; genPlusIncr
   0222 11 5B 00            685 	ld	de,#_GameSprites + 0 + 91
                            686 ; genAssign (pointer)
   0225 3E F0               687 	ld	a,#0xF0
   0227 12                  688 	ld	(de),a
                            689 ; genPlus
                            690 ; genPlusIncr
   0228 11 5C 00            691 	ld	de,#_GameSprites + 0 + 92
                            692 ; genAssign (pointer)
   022B 3E FC               693 	ld	a,#0xFC
   022D 12                  694 	ld	(de),a
                            695 ; genPlus
                            696 ; genPlusIncr
   022E 11 5D 00            697 	ld	de,#_GameSprites + 0 + 93
                            698 ; genAssign (pointer)
   0231 3E F0               699 	ld	a,#0xF0
   0233 12                  700 	ld	(de),a
                            701 ; genPlus
                            702 ; genPlusIncr
   0234 11 5E 00            703 	ld	de,#_GameSprites + 0 + 94
                            704 ; genAssign (pointer)
   0237 3E F0               705 	ld	a,#0xF0
   0239 12                  706 	ld	(de),a
                            707 ; genPlus
                            708 ; genPlusIncr
   023A 11 5F 00            709 	ld	de,#_GameSprites + 0 + 95
                            710 ; genAssign (pointer)
   023D 3E F8               711 	ld	a,#0xF8
   023F 12                  712 	ld	(de),a
                            713 ; genPlus
                            714 ; genPlusIncr
   0240 11 60 00            715 	ld	de,#_GameSprites + 0 + 96
                            716 ; genAssign (pointer)
   0243 3E 0D               717 	ld	a,#0x0D
   0245 12                  718 	ld	(de),a
                            719 ; genPlus
                            720 ; genPlusIncr
   0246 11 61 00            721 	ld	de,#_GameSprites + 0 + 97
                            722 ; genAssign (pointer)
   0249 3E 1D               723 	ld	a,#0x1D
   024B 12                  724 	ld	(de),a
                            725 ; genPlus
                            726 ; genPlusIncr
   024C 11 62 00            727 	ld	de,#_GameSprites + 0 + 98
                            728 ; genAssign (pointer)
   024F 3E 3D               729 	ld	a,#0x3D
   0251 12                  730 	ld	(de),a
                            731 ; genPlus
                            732 ; genPlusIncr
   0252 11 63 00            733 	ld	de,#_GameSprites + 0 + 99
                            734 ; genAssign (pointer)
   0255 3E 0D               735 	ld	a,#0x0D
   0257 12                  736 	ld	(de),a
                            737 ; genPlus
                            738 ; genPlusIncr
   0258 11 64 00            739 	ld	de,#_GameSprites + 0 + 100
                            740 ; genAssign (pointer)
   025B 3E 47               741 	ld	a,#0x47
   025D 12                  742 	ld	(de),a
                            743 ; genPlus
                            744 ; genPlusIncr
   025E 11 65 00            745 	ld	de,#_GameSprites + 0 + 101
                            746 ; genAssign (pointer)
   0261 3E 0F               747 	ld	a,#0x0F
   0263 12                  748 	ld	(de),a
                            749 ; genPlus
                            750 ; genPlusIncr
   0264 11 66 00            751 	ld	de,#_GameSprites + 0 + 102
                            752 ; genAssign (pointer)
   0267 3E 43               753 	ld	a,#0x43
   0269 12                  754 	ld	(de),a
                            755 ; genPlus
                            756 ; genPlusIncr
   026A 11 67 00            757 	ld	de,#_GameSprites + 0 + 103
                            758 ; genAssign (pointer)
   026D 3E 07               759 	ld	a,#0x07
   026F 12                  760 	ld	(de),a
                            761 ; genPlus
                            762 ; genPlusIncr
   0270 11 68 00            763 	ld	de,#_GameSprites + 0 + 104
                            764 ; genAssign (pointer)
   0273 3E 80               765 	ld	a,#0x80
   0275 12                  766 	ld	(de),a
                            767 ; genPlus
                            768 ; genPlusIncr
   0276 11 69 00            769 	ld	de,#_GameSprites + 0 + 105
                            770 ; genAssign (pointer)
   0279 3E 03               771 	ld	a,#0x03
   027B 12                  772 	ld	(de),a
                            773 ; genPlus
                            774 ; genPlusIncr
   027C 11 6A 00            775 	ld	de,#_GameSprites + 0 + 106
                            776 ; genAssign (pointer)
   027F 3E 80               777 	ld	a,#0x80
   0281 12                  778 	ld	(de),a
                            779 ; genPlus
                            780 ; genPlusIncr
   0282 11 6B 00            781 	ld	de,#_GameSprites + 0 + 107
                            782 ; genAssign (pointer)
   0285 3E 00               783 	ld	a,#0x00
   0287 12                  784 	ld	(de),a
                            785 ; genPlus
                            786 ; genPlusIncr
   0288 11 6C 00            787 	ld	de,#_GameSprites + 0 + 108
                            788 ; genAssign (pointer)
   028B 3E 80               789 	ld	a,#0x80
   028D 12                  790 	ld	(de),a
                            791 ; genPlus
                            792 ; genPlusIncr
   028E 11 6D 00            793 	ld	de,#_GameSprites + 0 + 109
                            794 ; genAssign (pointer)
   0291 3E 00               795 	ld	a,#0x00
   0293 12                  796 	ld	(de),a
                            797 ; genPlus
                            798 ; genPlusIncr
   0294 11 6E 00            799 	ld	de,#_GameSprites + 0 + 110
                            800 ; genAssign (pointer)
   0297 3E 80               801 	ld	a,#0x80
   0299 12                  802 	ld	(de),a
                            803 ; genPlus
                            804 ; genPlusIncr
   029A 11 6F 00            805 	ld	de,#_GameSprites + 0 + 111
                            806 ; genAssign (pointer)
   029D 3E 00               807 	ld	a,#0x00
   029F 12                  808 	ld	(de),a
                            809 ; genPlus
                            810 ; genPlusIncr
   02A0 11 70 00            811 	ld	de,#_GameSprites + 0 + 112
                            812 ; genAssign (pointer)
   02A3 3E B0               813 	ld	a,#0xB0
   02A5 12                  814 	ld	(de),a
                            815 ; genPlus
                            816 ; genPlusIncr
   02A6 11 71 00            817 	ld	de,#_GameSprites + 0 + 113
                            818 ; genAssign (pointer)
   02A9 3E B8               819 	ld	a,#0xB8
   02AB 12                  820 	ld	(de),a
                            821 ; genPlus
                            822 ; genPlusIncr
   02AC 11 72 00            823 	ld	de,#_GameSprites + 0 + 114
                            824 ; genAssign (pointer)
   02AF 3E BC               825 	ld	a,#0xBC
   02B1 12                  826 	ld	(de),a
                            827 ; genPlus
                            828 ; genPlusIncr
   02B2 11 73 00            829 	ld	de,#_GameSprites + 0 + 115
                            830 ; genAssign (pointer)
   02B5 3E B0               831 	ld	a,#0xB0
   02B7 12                  832 	ld	(de),a
                            833 ; genPlus
                            834 ; genPlusIncr
   02B8 11 74 00            835 	ld	de,#_GameSprites + 0 + 116
                            836 ; genAssign (pointer)
   02BB 3E E2               837 	ld	a,#0xE2
   02BD 12                  838 	ld	(de),a
                            839 ; genPlus
                            840 ; genPlusIncr
   02BE 11 75 00            841 	ld	de,#_GameSprites + 0 + 117
                            842 ; genAssign (pointer)
   02C1 3E F0               843 	ld	a,#0xF0
   02C3 12                  844 	ld	(de),a
                            845 ; genPlus
                            846 ; genPlusIncr
   02C4 11 76 00            847 	ld	de,#_GameSprites + 0 + 118
                            848 ; genAssign (pointer)
   02C7 3E C2               849 	ld	a,#0xC2
   02C9 12                  850 	ld	(de),a
                            851 ; genPlus
                            852 ; genPlusIncr
   02CA 11 77 00            853 	ld	de,#_GameSprites + 0 + 119
                            854 ; genAssign (pointer)
   02CD 3E E0               855 	ld	a,#0xE0
   02CF 12                  856 	ld	(de),a
                            857 ; genPlus
                            858 ; genPlusIncr
   02D0 11 78 00            859 	ld	de,#_GameSprites + 0 + 120
                            860 ; genAssign (pointer)
   02D3 3E 01               861 	ld	a,#0x01
   02D5 12                  862 	ld	(de),a
                            863 ; genPlus
                            864 ; genPlusIncr
   02D6 11 79 00            865 	ld	de,#_GameSprites + 0 + 121
                            866 ; genAssign (pointer)
   02D9 3E C0               867 	ld	a,#0xC0
   02DB 12                  868 	ld	(de),a
                            869 ; genPlus
                            870 ; genPlusIncr
   02DC 11 7A 00            871 	ld	de,#_GameSprites + 0 + 122
                            872 ; genAssign (pointer)
   02DF 3E 01               873 	ld	a,#0x01
   02E1 12                  874 	ld	(de),a
                            875 ; genPlus
                            876 ; genPlusIncr
   02E2 11 7B 00            877 	ld	de,#_GameSprites + 0 + 123
                            878 ; genAssign (pointer)
   02E5 3E 00               879 	ld	a,#0x00
   02E7 12                  880 	ld	(de),a
                            881 ; genPlus
                            882 ; genPlusIncr
   02E8 11 7C 00            883 	ld	de,#_GameSprites + 0 + 124
                            884 ; genAssign (pointer)
   02EB 3E 01               885 	ld	a,#0x01
   02ED 12                  886 	ld	(de),a
                            887 ; genPlus
                            888 ; genPlusIncr
   02EE 11 7D 00            889 	ld	de,#_GameSprites + 0 + 125
                            890 ; genAssign (pointer)
   02F1 3E 00               891 	ld	a,#0x00
   02F3 12                  892 	ld	(de),a
                            893 ; genPlus
                            894 ; genPlusIncr
   02F4 11 7E 00            895 	ld	de,#_GameSprites + 0 + 126
                            896 ; genAssign (pointer)
   02F7 3E 01               897 	ld	a,#0x01
   02F9 12                  898 	ld	(de),a
                            899 ; genPlus
                            900 ; genPlusIncr
   02FA 11 7F 00            901 	ld	de,#_GameSprites + 0 + 127
                            902 ; genAssign (pointer)
   02FD 3E 00               903 	ld	a,#0x00
   02FF 12                  904 	ld	(de),a
                            905 ; genPlus
                            906 ; genPlusIncr
   0300 11 80 00            907 	ld	de,#_GameSprites + 0 + 128
                            908 ; genAssign (pointer)
   0303 3E 00               909 	ld	a,#0x00
   0305 12                  910 	ld	(de),a
                            911 ; genPlus
                            912 ; genPlusIncr
   0306 11 81 00            913 	ld	de,#_GameSprites + 0 + 129
                            914 ; genAssign (pointer)
   0309 3E 00               915 	ld	a,#0x00
   030B 12                  916 	ld	(de),a
                            917 ; genPlus
                            918 ; genPlusIncr
   030C 11 82 00            919 	ld	de,#_GameSprites + 0 + 130
                            920 ; genAssign (pointer)
   030F 3E 00               921 	ld	a,#0x00
   0311 12                  922 	ld	(de),a
                            923 ; genPlus
                            924 ; genPlusIncr
   0312 11 83 00            925 	ld	de,#_GameSprites + 0 + 131
                            926 ; genAssign (pointer)
   0315 3E 00               927 	ld	a,#0x00
   0317 12                  928 	ld	(de),a
                            929 ; genPlus
                            930 ; genPlusIncr
   0318 11 84 00            931 	ld	de,#_GameSprites + 0 + 132
                            932 ; genAssign (pointer)
   031B 3E 00               933 	ld	a,#0x00
   031D 12                  934 	ld	(de),a
                            935 ; genPlus
                            936 ; genPlusIncr
   031E 11 85 00            937 	ld	de,#_GameSprites + 0 + 133
                            938 ; genAssign (pointer)
   0321 3E 00               939 	ld	a,#0x00
   0323 12                  940 	ld	(de),a
                            941 ; genPlus
                            942 ; genPlusIncr
   0324 11 86 00            943 	ld	de,#_GameSprites + 0 + 134
                            944 ; genAssign (pointer)
   0327 3E 00               945 	ld	a,#0x00
   0329 12                  946 	ld	(de),a
                            947 ; genPlus
                            948 ; genPlusIncr
   032A 11 87 00            949 	ld	de,#_GameSprites + 0 + 135
                            950 ; genAssign (pointer)
   032D 3E 00               951 	ld	a,#0x00
   032F 12                  952 	ld	(de),a
                            953 ; genPlus
                            954 ; genPlusIncr
   0330 11 88 00            955 	ld	de,#_GameSprites + 0 + 136
                            956 ; genAssign (pointer)
   0333 3E 00               957 	ld	a,#0x00
   0335 12                  958 	ld	(de),a
                            959 ; genPlus
                            960 ; genPlusIncr
   0336 11 89 00            961 	ld	de,#_GameSprites + 0 + 137
                            962 ; genAssign (pointer)
   0339 3E 00               963 	ld	a,#0x00
   033B 12                  964 	ld	(de),a
                            965 ; genPlus
                            966 ; genPlusIncr
   033C 11 8A 00            967 	ld	de,#_GameSprites + 0 + 138
                            968 ; genAssign (pointer)
   033F 3E 01               969 	ld	a,#0x01
   0341 12                  970 	ld	(de),a
                            971 ; genPlus
                            972 ; genPlusIncr
   0342 11 8B 00            973 	ld	de,#_GameSprites + 0 + 139
                            974 ; genAssign (pointer)
   0345 3E 01               975 	ld	a,#0x01
   0347 12                  976 	ld	(de),a
                            977 ; genPlus
                            978 ; genPlusIncr
   0348 11 8C 00            979 	ld	de,#_GameSprites + 0 + 140
                            980 ; genAssign (pointer)
   034B 3E 03               981 	ld	a,#0x03
   034D 12                  982 	ld	(de),a
                            983 ; genPlus
                            984 ; genPlusIncr
   034E 11 8D 00            985 	ld	de,#_GameSprites + 0 + 141
                            986 ; genAssign (pointer)
   0351 3E 03               987 	ld	a,#0x03
   0353 12                  988 	ld	(de),a
                            989 ; genPlus
                            990 ; genPlusIncr
   0354 11 8E 00            991 	ld	de,#_GameSprites + 0 + 142
                            992 ; genAssign (pointer)
   0357 3E 07               993 	ld	a,#0x07
   0359 12                  994 	ld	(de),a
                            995 ; genPlus
                            996 ; genPlusIncr
   035A 11 8F 00            997 	ld	de,#_GameSprites + 0 + 143
                            998 ; genAssign (pointer)
   035D 3E 07               999 	ld	a,#0x07
   035F 12                 1000 	ld	(de),a
                           1001 ; genPlus
                           1002 ; genPlusIncr
   0360 11 90 00           1003 	ld	de,#_GameSprites + 0 + 144
                           1004 ; genAssign (pointer)
   0363 3E 00              1005 	ld	a,#0x00
   0365 12                 1006 	ld	(de),a
                           1007 ; genPlus
                           1008 ; genPlusIncr
   0366 11 91 00           1009 	ld	de,#_GameSprites + 0 + 145
                           1010 ; genAssign (pointer)
   0369 3E 00              1011 	ld	a,#0x00
   036B 12                 1012 	ld	(de),a
                           1013 ; genPlus
                           1014 ; genPlusIncr
   036C 11 92 00           1015 	ld	de,#_GameSprites + 0 + 146
                           1016 ; genAssign (pointer)
   036F 3E 00              1017 	ld	a,#0x00
   0371 12                 1018 	ld	(de),a
                           1019 ; genPlus
                           1020 ; genPlusIncr
   0372 11 93 00           1021 	ld	de,#_GameSprites + 0 + 147
                           1022 ; genAssign (pointer)
   0375 3E 00              1023 	ld	a,#0x00
   0377 12                 1024 	ld	(de),a
                           1025 ; genPlus
                           1026 ; genPlusIncr
   0378 11 94 00           1027 	ld	de,#_GameSprites + 0 + 148
                           1028 ; genAssign (pointer)
   037B 3E 00              1029 	ld	a,#0x00
   037D 12                 1030 	ld	(de),a
                           1031 ; genPlus
                           1032 ; genPlusIncr
   037E 11 95 00           1033 	ld	de,#_GameSprites + 0 + 149
                           1034 ; genAssign (pointer)
   0381 3E 00              1035 	ld	a,#0x00
   0383 12                 1036 	ld	(de),a
                           1037 ; genPlus
                           1038 ; genPlusIncr
   0384 11 96 00           1039 	ld	de,#_GameSprites + 0 + 150
                           1040 ; genAssign (pointer)
   0387 3E 00              1041 	ld	a,#0x00
   0389 12                 1042 	ld	(de),a
                           1043 ; genPlus
                           1044 ; genPlusIncr
   038A 11 97 00           1045 	ld	de,#_GameSprites + 0 + 151
                           1046 ; genAssign (pointer)
   038D 3E 00              1047 	ld	a,#0x00
   038F 12                 1048 	ld	(de),a
                           1049 ; genPlus
                           1050 ; genPlusIncr
   0390 11 98 00           1051 	ld	de,#_GameSprites + 0 + 152
                           1052 ; genAssign (pointer)
   0393 3E 00              1053 	ld	a,#0x00
   0395 12                 1054 	ld	(de),a
                           1055 ; genPlus
                           1056 ; genPlusIncr
   0396 11 99 00           1057 	ld	de,#_GameSprites + 0 + 153
                           1058 ; genAssign (pointer)
   0399 3E 00              1059 	ld	a,#0x00
   039B 12                 1060 	ld	(de),a
                           1061 ; genPlus
                           1062 ; genPlusIncr
   039C 11 9A 00           1063 	ld	de,#_GameSprites + 0 + 154
                           1064 ; genAssign (pointer)
   039F 3E 80              1065 	ld	a,#0x80
   03A1 12                 1066 	ld	(de),a
                           1067 ; genPlus
                           1068 ; genPlusIncr
   03A2 11 9B 00           1069 	ld	de,#_GameSprites + 0 + 155
                           1070 ; genAssign (pointer)
   03A5 3E 80              1071 	ld	a,#0x80
   03A7 12                 1072 	ld	(de),a
                           1073 ; genPlus
                           1074 ; genPlusIncr
   03A8 11 9C 00           1075 	ld	de,#_GameSprites + 0 + 156
                           1076 ; genAssign (pointer)
   03AB 3E C0              1077 	ld	a,#0xC0
   03AD 12                 1078 	ld	(de),a
                           1079 ; genPlus
                           1080 ; genPlusIncr
   03AE 11 9D 00           1081 	ld	de,#_GameSprites + 0 + 157
                           1082 ; genAssign (pointer)
   03B1 3E C0              1083 	ld	a,#0xC0
   03B3 12                 1084 	ld	(de),a
                           1085 ; genPlus
                           1086 ; genPlusIncr
   03B4 11 9E 00           1087 	ld	de,#_GameSprites + 0 + 158
                           1088 ; genAssign (pointer)
   03B7 3E E0              1089 	ld	a,#0xE0
   03B9 12                 1090 	ld	(de),a
                           1091 ; genPlus
                           1092 ; genPlusIncr
   03BA 11 9F 00           1093 	ld	de,#_GameSprites + 0 + 159
                           1094 ; genAssign (pointer)
   03BD 3E E0              1095 	ld	a,#0xE0
   03BF 12                 1096 	ld	(de),a
                           1097 ; genPlus
                           1098 ; genPlusIncr
   03C0 11 A0 00           1099 	ld	de,#_GameSprites + 0 + 160
                           1100 ; genAssign (pointer)
   03C3 3E 07              1101 	ld	a,#0x07
   03C5 12                 1102 	ld	(de),a
                           1103 ; genPlus
                           1104 ; genPlusIncr
   03C6 11 A1 00           1105 	ld	de,#_GameSprites + 0 + 161
                           1106 ; genAssign (pointer)
   03C9 3E 07              1107 	ld	a,#0x07
   03CB 12                 1108 	ld	(de),a
                           1109 ; genPlus
                           1110 ; genPlusIncr
   03CC 11 A2 00           1111 	ld	de,#_GameSprites + 0 + 162
                           1112 ; genAssign (pointer)
   03CF 3E 07              1113 	ld	a,#0x07
   03D1 12                 1114 	ld	(de),a
                           1115 ; genPlus
                           1116 ; genPlusIncr
   03D2 11 A3 00           1117 	ld	de,#_GameSprites + 0 + 163
                           1118 ; genAssign (pointer)
   03D5 3E 07              1119 	ld	a,#0x07
   03D7 12                 1120 	ld	(de),a
                           1121 ; genPlus
                           1122 ; genPlusIncr
   03D8 11 A4 00           1123 	ld	de,#_GameSprites + 0 + 164
                           1124 ; genAssign (pointer)
   03DB 3E 07              1125 	ld	a,#0x07
   03DD 12                 1126 	ld	(de),a
                           1127 ; genPlus
                           1128 ; genPlusIncr
   03DE 11 A5 00           1129 	ld	de,#_GameSprites + 0 + 165
                           1130 ; genAssign (pointer)
   03E1 3E 07              1131 	ld	a,#0x07
   03E3 12                 1132 	ld	(de),a
                           1133 ; genPlus
                           1134 ; genPlusIncr
   03E4 11 A6 00           1135 	ld	de,#_GameSprites + 0 + 166
                           1136 ; genAssign (pointer)
   03E7 3E 00              1137 	ld	a,#0x00
   03E9 12                 1138 	ld	(de),a
                           1139 ; genPlus
                           1140 ; genPlusIncr
   03EA 11 A7 00           1141 	ld	de,#_GameSprites + 0 + 167
                           1142 ; genAssign (pointer)
   03ED 3E 00              1143 	ld	a,#0x00
   03EF 12                 1144 	ld	(de),a
                           1145 ; genPlus
                           1146 ; genPlusIncr
   03F0 11 A8 00           1147 	ld	de,#_GameSprites + 0 + 168
                           1148 ; genAssign (pointer)
   03F3 3E 00              1149 	ld	a,#0x00
   03F5 12                 1150 	ld	(de),a
                           1151 ; genPlus
                           1152 ; genPlusIncr
   03F6 11 A9 00           1153 	ld	de,#_GameSprites + 0 + 169
                           1154 ; genAssign (pointer)
   03F9 3E 00              1155 	ld	a,#0x00
   03FB 12                 1156 	ld	(de),a
                           1157 ; genPlus
                           1158 ; genPlusIncr
   03FC 11 AA 00           1159 	ld	de,#_GameSprites + 0 + 170
                           1160 ; genAssign (pointer)
   03FF 3E 00              1161 	ld	a,#0x00
   0401 12                 1162 	ld	(de),a
                           1163 ; genPlus
                           1164 ; genPlusIncr
   0402 11 AB 00           1165 	ld	de,#_GameSprites + 0 + 171
                           1166 ; genAssign (pointer)
   0405 3E 00              1167 	ld	a,#0x00
   0407 12                 1168 	ld	(de),a
                           1169 ; genPlus
                           1170 ; genPlusIncr
   0408 11 AC 00           1171 	ld	de,#_GameSprites + 0 + 172
                           1172 ; genAssign (pointer)
   040B 3E 00              1173 	ld	a,#0x00
   040D 12                 1174 	ld	(de),a
                           1175 ; genPlus
                           1176 ; genPlusIncr
   040E 11 AD 00           1177 	ld	de,#_GameSprites + 0 + 173
                           1178 ; genAssign (pointer)
   0411 3E 00              1179 	ld	a,#0x00
   0413 12                 1180 	ld	(de),a
                           1181 ; genPlus
                           1182 ; genPlusIncr
   0414 11 AE 00           1183 	ld	de,#_GameSprites + 0 + 174
                           1184 ; genAssign (pointer)
   0417 3E 00              1185 	ld	a,#0x00
   0419 12                 1186 	ld	(de),a
                           1187 ; genPlus
                           1188 ; genPlusIncr
   041A 11 AF 00           1189 	ld	de,#_GameSprites + 0 + 175
                           1190 ; genAssign (pointer)
   041D 3E 00              1191 	ld	a,#0x00
   041F 12                 1192 	ld	(de),a
                           1193 ; genPlus
                           1194 ; genPlusIncr
   0420 11 B0 00           1195 	ld	de,#_GameSprites + 0 + 176
                           1196 ; genAssign (pointer)
   0423 3E E0              1197 	ld	a,#0xE0
   0425 12                 1198 	ld	(de),a
                           1199 ; genPlus
                           1200 ; genPlusIncr
   0426 11 B1 00           1201 	ld	de,#_GameSprites + 0 + 177
                           1202 ; genAssign (pointer)
   0429 3E E0              1203 	ld	a,#0xE0
   042B 12                 1204 	ld	(de),a
                           1205 ; genPlus
                           1206 ; genPlusIncr
   042C 11 B2 00           1207 	ld	de,#_GameSprites + 0 + 178
                           1208 ; genAssign (pointer)
   042F 3E E0              1209 	ld	a,#0xE0
   0431 12                 1210 	ld	(de),a
                           1211 ; genPlus
                           1212 ; genPlusIncr
   0432 11 B3 00           1213 	ld	de,#_GameSprites + 0 + 179
                           1214 ; genAssign (pointer)
   0435 3E E0              1215 	ld	a,#0xE0
   0437 12                 1216 	ld	(de),a
                           1217 ; genPlus
                           1218 ; genPlusIncr
   0438 11 B4 00           1219 	ld	de,#_GameSprites + 0 + 180
                           1220 ; genAssign (pointer)
   043B 3E E0              1221 	ld	a,#0xE0
   043D 12                 1222 	ld	(de),a
                           1223 ; genPlus
                           1224 ; genPlusIncr
   043E 11 B5 00           1225 	ld	de,#_GameSprites + 0 + 181
                           1226 ; genAssign (pointer)
   0441 3E E0              1227 	ld	a,#0xE0
   0443 12                 1228 	ld	(de),a
                           1229 ; genPlus
                           1230 ; genPlusIncr
   0444 11 B6 00           1231 	ld	de,#_GameSprites + 0 + 182
                           1232 ; genAssign (pointer)
   0447 3E 00              1233 	ld	a,#0x00
   0449 12                 1234 	ld	(de),a
                           1235 ; genPlus
                           1236 ; genPlusIncr
   044A 11 B7 00           1237 	ld	de,#_GameSprites + 0 + 183
                           1238 ; genAssign (pointer)
   044D 3E 00              1239 	ld	a,#0x00
   044F 12                 1240 	ld	(de),a
                           1241 ; genPlus
                           1242 ; genPlusIncr
   0450 11 B8 00           1243 	ld	de,#_GameSprites + 0 + 184
                           1244 ; genAssign (pointer)
   0453 3E 00              1245 	ld	a,#0x00
   0455 12                 1246 	ld	(de),a
                           1247 ; genPlus
                           1248 ; genPlusIncr
   0456 11 B9 00           1249 	ld	de,#_GameSprites + 0 + 185
                           1250 ; genAssign (pointer)
   0459 3E 00              1251 	ld	a,#0x00
   045B 12                 1252 	ld	(de),a
                           1253 ; genPlus
                           1254 ; genPlusIncr
   045C 11 BA 00           1255 	ld	de,#_GameSprites + 0 + 186
                           1256 ; genAssign (pointer)
   045F 3E 00              1257 	ld	a,#0x00
   0461 12                 1258 	ld	(de),a
                           1259 ; genPlus
                           1260 ; genPlusIncr
   0462 11 BB 00           1261 	ld	de,#_GameSprites + 0 + 187
                           1262 ; genAssign (pointer)
   0465 3E 00              1263 	ld	a,#0x00
   0467 12                 1264 	ld	(de),a
                           1265 ; genPlus
                           1266 ; genPlusIncr
   0468 11 BC 00           1267 	ld	de,#_GameSprites + 0 + 188
                           1268 ; genAssign (pointer)
   046B 3E 00              1269 	ld	a,#0x00
   046D 12                 1270 	ld	(de),a
                           1271 ; genPlus
                           1272 ; genPlusIncr
   046E 11 BD 00           1273 	ld	de,#_GameSprites + 0 + 189
                           1274 ; genAssign (pointer)
   0471 3E 00              1275 	ld	a,#0x00
   0473 12                 1276 	ld	(de),a
                           1277 ; genPlus
                           1278 ; genPlusIncr
   0474 11 BE 00           1279 	ld	de,#_GameSprites + 0 + 190
                           1280 ; genAssign (pointer)
   0477 3E 00              1281 	ld	a,#0x00
   0479 12                 1282 	ld	(de),a
                           1283 ; genPlus
                           1284 ; genPlusIncr
   047A 11 BF 00           1285 	ld	de,#_GameSprites + 0 + 191
                           1286 ; genAssign (pointer)
   047D 3E 00              1287 	ld	a,#0x00
   047F 12                 1288 	ld	(de),a
                           1289 ;	main.c 145
                           1290 ; genAssign
                           1291 ; AOP_HL for _spritesize
   0480 21 D8 00           1292 	ld	hl,#_spritesize + 0
   0483 36 08              1293 	ld	(hl),#0x08
                           1294 ;--------------------------------------------------------
                           1295 ; Home
                           1296 ;--------------------------------------------------------
                           1297 	.area _HOME
                           1298 	.area _CODE
                           1299 ;--------------------------------------------------------
                           1300 ; code
                           1301 ;--------------------------------------------------------
                           1302 	.area _CODE
                           1303 ;	main.c 13
                           1304 ; genLabel
                           1305 ; genFunction
                           1306 ;	---------------------------------
                           1307 ; Function performantdelay
                           1308 ; ---------------------------------
   0000                    1309 ___performantdelay_start:
   0000                    1310 _performantdelay:
   0000 C5                 1311 	push	bc
                           1312 	
                           1313 ;	main.c 16
                           1314 ; genAssign
   0001 0E 00              1315 	ld	c,#0x00
                           1316 ; genLabel
   0003                    1317 00101$:
                           1318 ; genCmpLt
                           1319 ; AOP_STK for 
   0003 AF                 1320 	xor	a,a
   0004 79                 1321 	ld	a,c
   0005 F8 04              1322 	lda	hl,4(sp)
   0007 9E                 1323 	sbc	a,(hl) ; 2
   0008 D2 12 00           1324 	jp	nc,00105$
                           1325 ;	main.c 18
                           1326 ; genCall
   000B CD 00 00           1327 	call	_wait_vbl_done
                           1328 ;	main.c 16
                           1329 ; genPlus
                           1330 ; genPlusIncr
   000E 0C                 1331 	inc	c
                           1332 ; genGoto
   000F C3 03 00           1333 	jp	00101$
                           1334 ; genLabel
   0012                    1335 00105$:
                           1336 ; genEndFunction
                           1337 	
   0012 C1                 1338 	pop	bc
   0013 C9                 1339 	ret
   0014                    1340 ___performantdelay_end:
                           1341 ;	main.c 22
                           1342 ; genLabel
                           1343 ; genFunction
                           1344 ;	---------------------------------
                           1345 ; Function movegamecharacter
                           1346 ; ---------------------------------
   0014                    1347 ___movegamecharacter_start:
   0014                    1348 _movegamecharacter:
   0014 C5                 1349 	push	bc
   0015 E8 FD              1350 	lda	sp,-3(sp)
                           1351 ;	main.c 24
                           1352 ; genAssign
                           1353 ; AOP_STK for 
                           1354 ; AOP_STK for _movegamecharacter_sloc1_1_0
   0017 F8 07              1355 	lda	hl,7(sp)
   0019 2A                 1356 	ld	a,(hl+)
   001A 5E                 1357 	ld	e,(hl)
   001B F8 00              1358 	lda	hl,0(sp)
   001D 22                 1359 	ld	(hl+),a
   001E 73                 1360 	ld	(hl),e
                           1361 ; genPointerGet
                           1362 ; AOP_STK for _movegamecharacter_sloc1_1_0
                           1363 ; AOP_STK for _movegamecharacter_sloc0_1_0
   001F 2B                 1364 	dec	hl
   0020 5E                 1365 	ld	e,(hl)
   0021 23                 1366 	inc	hl
   0022 56                 1367 	ld	d,(hl)
   0023 1A                 1368 	ld	a,(de)
   0024 23                 1369 	inc	hl
   0025 77                 1370 	ld	(hl),a
                           1371 ; genIpush
                           1372 ; AOP_STK for 
   0026 F8 0A              1373 	lda	hl,10(sp)
   0028 7E                 1374 	ld	a,(hl)
   0029 F5                 1375 	push	af
   002A 33                 1376 	inc	sp
                           1377 ; genIpush
                           1378 ; AOP_STK for 
   002B 2B                 1379 	dec	hl
   002C 7E                 1380 	ld	a,(hl)
   002D F5                 1381 	push	af
   002E 33                 1382 	inc	sp
                           1383 ; genIpush
                           1384 ; AOP_STK for _movegamecharacter_sloc0_1_0
   002F F8 04              1385 	lda	hl,4(sp)
   0031 7E                 1386 	ld	a,(hl)
   0032 F5                 1387 	push	af
   0033 33                 1388 	inc	sp
                           1389 ; genCall
   0034 CD 00 00           1390 	call	_move_sprite
   0037 E8 03              1391 	lda	sp,3(sp)
                           1392 ;	main.c 25
                           1393 ; genPlus
                           1394 ; AOP_STK for 
                           1395 ; AOP_HL for _spritesize
                           1396 ;	genPlusIncr failed
   0039 F8 09              1397 	lda	hl,9(sp)
   003B 7E                 1398 	ld	a,(hl)
   003C 21 D8 00           1399 	ld	hl,#_spritesize + 0
   003F 86                 1400 	add	a,(hl)
   0040 4F                 1401 	ld	c,a
                           1402 ; genPlus
                           1403 ; AOP_STK for _movegamecharacter_sloc1_1_0
                           1404 ; genPlusIncr
   0041 F8 00              1405 	lda	hl,0(sp)
   0043 5E                 1406 	ld	e,(hl)
   0044 23                 1407 	inc	hl
   0045 56                 1408 	ld	d,(hl)
   0046 13                 1409 	inc	de
                           1410 ; genPointerGet
   0047 1A                 1411 	ld	a,(de)
   0048 47                 1412 	ld	b,a
                           1413 ; genIpush
                           1414 ; AOP_STK for 
   0049 F8 0A              1415 	lda	hl,10(sp)
   004B 7E                 1416 	ld	a,(hl)
   004C F5                 1417 	push	af
   004D 33                 1418 	inc	sp
                           1419 ; genIpush
   004E 79                 1420 	ld	a,c
   004F F5                 1421 	push	af
   0050 33                 1422 	inc	sp
                           1423 ; genIpush
   0051 78                 1424 	ld	a,b
   0052 F5                 1425 	push	af
   0053 33                 1426 	inc	sp
                           1427 ; genCall
   0054 CD 00 00           1428 	call	_move_sprite
   0057 E8 03              1429 	lda	sp,3(sp)
                           1430 ;	main.c 26
                           1431 ; genPlus
                           1432 ; AOP_STK for 
                           1433 ; AOP_HL for _spritesize
                           1434 ; AOP_STK for _movegamecharacter_sloc0_1_0
                           1435 ;	genPlusIncr failed
   0059 F8 0A              1436 	lda	hl,10(sp)
   005B 7E                 1437 	ld	a,(hl)
   005C 21 D8 00           1438 	ld	hl,#_spritesize + 0
   005F 86                 1439 	add	a,(hl)
   0060 F8 02              1440 	lda	hl,2(sp)
   0062 77                 1441 	ld	(hl),a
                           1442 ; genPlus
                           1443 ; AOP_STK for _movegamecharacter_sloc1_1_0
                           1444 ; genPlusIncr
   0063 2B                 1445 	dec	hl
   0064 2B                 1446 	dec	hl
   0065 5E                 1447 	ld	e,(hl)
   0066 23                 1448 	inc	hl
   0067 56                 1449 	ld	d,(hl)
   0068 13                 1450 	inc	de
   0069 13                 1451 	inc	de
                           1452 ; genPointerGet
   006A 1A                 1453 	ld	a,(de)
   006B 47                 1454 	ld	b,a
                           1455 ; genIpush
                           1456 ; AOP_STK for _movegamecharacter_sloc0_1_0
   006C 23                 1457 	inc	hl
   006D 7E                 1458 	ld	a,(hl)
   006E F5                 1459 	push	af
   006F 33                 1460 	inc	sp
                           1461 ; genIpush
                           1462 ; AOP_STK for 
   0070 F8 0A              1463 	lda	hl,10(sp)
   0072 7E                 1464 	ld	a,(hl)
   0073 F5                 1465 	push	af
   0074 33                 1466 	inc	sp
                           1467 ; genIpush
   0075 78                 1468 	ld	a,b
   0076 F5                 1469 	push	af
   0077 33                 1470 	inc	sp
                           1471 ; genCall
   0078 CD 00 00           1472 	call	_move_sprite
   007B E8 03              1473 	lda	sp,3(sp)
                           1474 ;	main.c 27
                           1475 ; genPlus
                           1476 ; AOP_STK for _movegamecharacter_sloc1_1_0
                           1477 ; genPlusIncr
                           1478 ;	genPlusIncr failed
   007D F8 00              1479 	lda	hl,0(sp)
   007F 5E                 1480 	ld	e,(hl)
   0080 23                 1481 	inc	hl
   0081 56                 1482 	ld	d,(hl)
   0082 21 03 00           1483 	ld	hl,#0x0003
   0085 19                 1484 	add	hl,de
   0086 5D                 1485 	ld	e,l
   0087 54                 1486 	ld	d,h
                           1487 ; genPointerGet
   0088 1A                 1488 	ld	a,(de)
   0089 47                 1489 	ld	b,a
                           1490 ; genIpush
                           1491 ; AOP_STK for _movegamecharacter_sloc0_1_0
   008A F8 02              1492 	lda	hl,2(sp)
   008C 7E                 1493 	ld	a,(hl)
   008D F5                 1494 	push	af
   008E 33                 1495 	inc	sp
                           1496 ; genIpush
   008F 79                 1497 	ld	a,c
   0090 F5                 1498 	push	af
   0091 33                 1499 	inc	sp
                           1500 ; genIpush
   0092 78                 1501 	ld	a,b
   0093 F5                 1502 	push	af
   0094 33                 1503 	inc	sp
                           1504 ; genCall
   0095 CD 00 00           1505 	call	_move_sprite
   0098 E8 03              1506 	lda	sp,3(sp)
                           1507 ; genLabel
   009A                    1508 00101$:
                           1509 ; genEndFunction
   009A E8 03              1510 	lda	sp,3(sp)
   009C C1                 1511 	pop	bc
   009D C9                 1512 	ret
   009E                    1513 ___movegamecharacter_end:
                           1514 ;	main.c 30
                           1515 ; genLabel
                           1516 ; genFunction
                           1517 ;	---------------------------------
                           1518 ; Function setupship
                           1519 ; ---------------------------------
   009E                    1520 ___setupship_start:
   009E                    1521 _setupship:
   009E C5                 1522 	push	bc
   009F E8 FD              1523 	lda	sp,-3(sp)
                           1524 ;	main.c 32
                           1525 ; genPlus
                           1526 ; AOP_STK for _setupship_sloc0_1_0
                           1527 ; genPlusIncr
                           1528 ;	genPlusIncr failed
   00A1 11 C0 00           1529 	ld	de,#_ship + 0
   00A4 21 04 00           1530 	ld	hl,#0x0004
   00A7 19                 1531 	add	hl,de
   00A8 7D                 1532 	ld	a,l
   00A9 54                 1533 	ld	d,h
   00AA F8 01              1534 	lda	hl,1(sp)
   00AC 22                 1535 	ld	(hl+),a
   00AD 72                 1536 	ld	(hl),d
                           1537 ; genAssign (pointer)
                           1538 ; AOP_STK for _setupship_sloc0_1_0
   00AE 2B                 1539 	dec	hl
   00AF 5E                 1540 	ld	e,(hl)
   00B0 23                 1541 	inc	hl
   00B1 56                 1542 	ld	d,(hl)
   00B2 3E 50              1543 	ld	a,#0x50
   00B4 12                 1544 	ld	(de),a
                           1545 ;	main.c 33
                           1546 ; genPlus
                           1547 ; genPlusIncr
   00B5 01 C5 00           1548 	ld	bc,#_ship + 0 + 5
                           1549 ; genAssign (pointer)
   00B8 3E 82              1550 	ld	a,#0x82
   00BA 02                 1551 	ld	(bc),a
                           1552 ;	main.c 34
                           1553 ; genPlus
                           1554 ; genPlusIncr
   00BB 11 C6 00           1555 	ld	de,#_ship + 0 + 6
                           1556 ; genAssign (pointer)
   00BE 3E 10              1557 	ld	a,#0x10
   00C0 12                 1558 	ld	(de),a
                           1559 ;	main.c 35
                           1560 ; genPlus
                           1561 ; genPlusIncr
   00C1 11 C7 00           1562 	ld	de,#_ship + 0 + 7
                           1563 ; genAssign (pointer)
   00C4 3E 10              1564 	ld	a,#0x10
   00C6 12                 1565 	ld	(de),a
                           1566 ;	main.c 39
                           1567 ; genIpush
   00C7 3E 00              1568 	ld	a,#0x00
   00C9 F5                 1569 	push	af
   00CA 33                 1570 	inc	sp
                           1571 ; genIpush
   00CB 3E 00              1572 	ld	a,#0x00
   00CD F5                 1573 	push	af
   00CE 33                 1574 	inc	sp
                           1575 ; genCall
   00CF CD 00 00           1576 	call	_set_sprite_tile
   00D2 E8 02              1577 	lda	sp,2(sp)
                           1578 ;	main.c 40
                           1579 ; genAssign (pointer)
   00D4 11 C0 00           1580 	ld	de,#_ship + 0
   00D7 3E 00              1581 	ld	a,#0x00
   00D9 12                 1582 	ld	(de),a
                           1583 ;	main.c 41
                           1584 ; genIpush
   00DA 3E 01              1585 	ld	a,#0x01
   00DC F5                 1586 	push	af
   00DD 33                 1587 	inc	sp
                           1588 ; genIpush
   00DE 3E 01              1589 	ld	a,#0x01
   00E0 F5                 1590 	push	af
   00E1 33                 1591 	inc	sp
                           1592 ; genCall
   00E2 CD 00 00           1593 	call	_set_sprite_tile
   00E5 E8 02              1594 	lda	sp,2(sp)
                           1595 ;	main.c 42
                           1596 ; genPlus
                           1597 ; genPlusIncr
   00E7 11 C1 00           1598 	ld	de,#_ship + 0 + 1
                           1599 ; genAssign (pointer)
   00EA 3E 01              1600 	ld	a,#0x01
   00EC 12                 1601 	ld	(de),a
                           1602 ;	main.c 43
                           1603 ; genIpush
   00ED 3E 02              1604 	ld	a,#0x02
   00EF F5                 1605 	push	af
   00F0 33                 1606 	inc	sp
                           1607 ; genIpush
   00F1 3E 02              1608 	ld	a,#0x02
   00F3 F5                 1609 	push	af
   00F4 33                 1610 	inc	sp
                           1611 ; genCall
   00F5 CD 00 00           1612 	call	_set_sprite_tile
   00F8 E8 02              1613 	lda	sp,2(sp)
                           1614 ;	main.c 44
                           1615 ; genPlus
                           1616 ; genPlusIncr
   00FA 11 C2 00           1617 	ld	de,#_ship + 0 + 2
                           1618 ; genAssign (pointer)
   00FD 3E 02              1619 	ld	a,#0x02
   00FF 12                 1620 	ld	(de),a
                           1621 ;	main.c 45
                           1622 ; genIpush
   0100 3E 03              1623 	ld	a,#0x03
   0102 F5                 1624 	push	af
   0103 33                 1625 	inc	sp
                           1626 ; genIpush
   0104 3E 03              1627 	ld	a,#0x03
   0106 F5                 1628 	push	af
   0107 33                 1629 	inc	sp
                           1630 ; genCall
   0108 CD 00 00           1631 	call	_set_sprite_tile
   010B E8 02              1632 	lda	sp,2(sp)
                           1633 ;	main.c 46
                           1634 ; genPlus
                           1635 ; genPlusIncr
   010D 11 C3 00           1636 	ld	de,#_ship + 0 + 3
                           1637 ; genAssign (pointer)
   0110 3E 03              1638 	ld	a,#0x03
   0112 12                 1639 	ld	(de),a
                           1640 ;	main.c 48
                           1641 ; genPointerGet
                           1642 ; AOP_STK for _setupship_sloc1_1_0
   0113 0A                 1643 	ld	a,(bc)
   0114 F8 00              1644 	lda	hl,0(sp)
                           1645 ; genPointerGet
                           1646 ; AOP_STK for _setupship_sloc0_1_0
   0116 22                 1647 	ld	(hl+),a
   0117 5E                 1648 	ld	e,(hl)
   0118 23                 1649 	inc	hl
   0119 56                 1650 	ld	d,(hl)
   011A 1A                 1651 	ld	a,(de)
   011B 4F                 1652 	ld	c,a
                           1653 ; genIpush
                           1654 ; AOP_STK for _setupship_sloc1_1_0
   011C 2B                 1655 	dec	hl
   011D 2B                 1656 	dec	hl
   011E 7E                 1657 	ld	a,(hl)
   011F F5                 1658 	push	af
   0120 33                 1659 	inc	sp
                           1660 ; genIpush
   0121 79                 1661 	ld	a,c
   0122 F5                 1662 	push	af
   0123 33                 1663 	inc	sp
                           1664 ; genIpush
   0124 21 C0 00           1665 	ld	hl,#_ship + 0
   0127 E5                 1666 	push	hl
                           1667 ; genCall
   0128 CD 14 00           1668 	call	_movegamecharacter
   012B E8 04              1669 	lda	sp,4(sp)
                           1670 ; genLabel
   012D                    1671 00101$:
                           1672 ; genEndFunction
   012D E8 03              1673 	lda	sp,3(sp)
   012F C1                 1674 	pop	bc
   0130 C9                 1675 	ret
   0131                    1676 ___setupship_end:
                           1677 ;	main.c 51
                           1678 ; genLabel
                           1679 ; genFunction
                           1680 ;	---------------------------------
                           1681 ; Function setupbug
                           1682 ; ---------------------------------
   0131                    1683 ___setupbug_start:
   0131                    1684 _setupbug:
   0131 C5                 1685 	push	bc
   0132 E8 FD              1686 	lda	sp,-3(sp)
                           1687 ;	main.c 53
                           1688 ; genPlus
                           1689 ; AOP_STK for _setupbug_sloc0_1_0
                           1690 ; genPlusIncr
                           1691 ;	genPlusIncr failed
   0134 11 C8 00           1692 	ld	de,#_bug + 0
   0137 21 04 00           1693 	ld	hl,#0x0004
   013A 19                 1694 	add	hl,de
   013B 7D                 1695 	ld	a,l
   013C 54                 1696 	ld	d,h
   013D F8 01              1697 	lda	hl,1(sp)
   013F 22                 1698 	ld	(hl+),a
   0140 72                 1699 	ld	(hl),d
                           1700 ; genAssign (pointer)
                           1701 ; AOP_STK for _setupbug_sloc0_1_0
   0141 2B                 1702 	dec	hl
   0142 5E                 1703 	ld	e,(hl)
   0143 23                 1704 	inc	hl
   0144 56                 1705 	ld	d,(hl)
   0145 3E 50              1706 	ld	a,#0x50
   0147 12                 1707 	ld	(de),a
                           1708 ;	main.c 54
                           1709 ; genPlus
                           1710 ; genPlusIncr
   0148 01 CD 00           1711 	ld	bc,#_bug + 0 + 5
                           1712 ; genAssign (pointer)
   014B 3E 1E              1713 	ld	a,#0x1E
   014D 02                 1714 	ld	(bc),a
                           1715 ;	main.c 55
                           1716 ; genPlus
                           1717 ; genPlusIncr
   014E 11 CE 00           1718 	ld	de,#_bug + 0 + 6
                           1719 ; genAssign (pointer)
   0151 3E 10              1720 	ld	a,#0x10
   0153 12                 1721 	ld	(de),a
                           1722 ;	main.c 56
                           1723 ; genPlus
                           1724 ; genPlusIncr
   0154 11 CF 00           1725 	ld	de,#_bug + 0 + 7
                           1726 ; genAssign (pointer)
   0157 3E 10              1727 	ld	a,#0x10
   0159 12                 1728 	ld	(de),a
                           1729 ;	main.c 60
                           1730 ; genIpush
   015A 3E 04              1731 	ld	a,#0x04
   015C F5                 1732 	push	af
   015D 33                 1733 	inc	sp
                           1734 ; genIpush
   015E 3E 04              1735 	ld	a,#0x04
   0160 F5                 1736 	push	af
   0161 33                 1737 	inc	sp
                           1738 ; genCall
   0162 CD 00 00           1739 	call	_set_sprite_tile
   0165 E8 02              1740 	lda	sp,2(sp)
                           1741 ;	main.c 61
                           1742 ; genAssign (pointer)
   0167 11 C8 00           1743 	ld	de,#_bug + 0
   016A 3E 04              1744 	ld	a,#0x04
   016C 12                 1745 	ld	(de),a
                           1746 ;	main.c 62
                           1747 ; genIpush
   016D 3E 05              1748 	ld	a,#0x05
   016F F5                 1749 	push	af
   0170 33                 1750 	inc	sp
                           1751 ; genIpush
   0171 3E 05              1752 	ld	a,#0x05
   0173 F5                 1753 	push	af
   0174 33                 1754 	inc	sp
                           1755 ; genCall
   0175 CD 00 00           1756 	call	_set_sprite_tile
   0178 E8 02              1757 	lda	sp,2(sp)
                           1758 ;	main.c 63
                           1759 ; genPlus
                           1760 ; genPlusIncr
   017A 11 C9 00           1761 	ld	de,#_bug + 0 + 1
                           1762 ; genAssign (pointer)
   017D 3E 05              1763 	ld	a,#0x05
   017F 12                 1764 	ld	(de),a
                           1765 ;	main.c 64
                           1766 ; genIpush
   0180 3E 06              1767 	ld	a,#0x06
   0182 F5                 1768 	push	af
   0183 33                 1769 	inc	sp
                           1770 ; genIpush
   0184 3E 06              1771 	ld	a,#0x06
   0186 F5                 1772 	push	af
   0187 33                 1773 	inc	sp
                           1774 ; genCall
   0188 CD 00 00           1775 	call	_set_sprite_tile
   018B E8 02              1776 	lda	sp,2(sp)
                           1777 ;	main.c 65
                           1778 ; genPlus
                           1779 ; genPlusIncr
   018D 11 CA 00           1780 	ld	de,#_bug + 0 + 2
                           1781 ; genAssign (pointer)
   0190 3E 06              1782 	ld	a,#0x06
   0192 12                 1783 	ld	(de),a
                           1784 ;	main.c 66
                           1785 ; genIpush
   0193 3E 07              1786 	ld	a,#0x07
   0195 F5                 1787 	push	af
   0196 33                 1788 	inc	sp
                           1789 ; genIpush
   0197 3E 07              1790 	ld	a,#0x07
   0199 F5                 1791 	push	af
   019A 33                 1792 	inc	sp
                           1793 ; genCall
   019B CD 00 00           1794 	call	_set_sprite_tile
   019E E8 02              1795 	lda	sp,2(sp)
                           1796 ;	main.c 67
                           1797 ; genPlus
                           1798 ; genPlusIncr
   01A0 11 CB 00           1799 	ld	de,#_bug + 0 + 3
                           1800 ; genAssign (pointer)
   01A3 3E 07              1801 	ld	a,#0x07
   01A5 12                 1802 	ld	(de),a
                           1803 ;	main.c 69
                           1804 ; genPointerGet
                           1805 ; AOP_STK for _setupbug_sloc1_1_0
   01A6 0A                 1806 	ld	a,(bc)
   01A7 F8 00              1807 	lda	hl,0(sp)
                           1808 ; genPointerGet
                           1809 ; AOP_STK for _setupbug_sloc0_1_0
   01A9 22                 1810 	ld	(hl+),a
   01AA 5E                 1811 	ld	e,(hl)
   01AB 23                 1812 	inc	hl
   01AC 56                 1813 	ld	d,(hl)
   01AD 1A                 1814 	ld	a,(de)
   01AE 4F                 1815 	ld	c,a
                           1816 ; genIpush
                           1817 ; AOP_STK for _setupbug_sloc1_1_0
   01AF 2B                 1818 	dec	hl
   01B0 2B                 1819 	dec	hl
   01B1 7E                 1820 	ld	a,(hl)
   01B2 F5                 1821 	push	af
   01B3 33                 1822 	inc	sp
                           1823 ; genIpush
   01B4 79                 1824 	ld	a,c
   01B5 F5                 1825 	push	af
   01B6 33                 1826 	inc	sp
                           1827 ; genIpush
   01B7 21 C8 00           1828 	ld	hl,#_bug + 0
   01BA E5                 1829 	push	hl
                           1830 ; genCall
   01BB CD 14 00           1831 	call	_movegamecharacter
   01BE E8 04              1832 	lda	sp,4(sp)
                           1833 ; genLabel
   01C0                    1834 00101$:
                           1835 ; genEndFunction
   01C0 E8 03              1836 	lda	sp,3(sp)
   01C2 C1                 1837 	pop	bc
   01C3 C9                 1838 	ret
   01C4                    1839 ___setupbug_end:
                           1840 ;	main.c 72
                           1841 ; genLabel
                           1842 ; genFunction
                           1843 ;	---------------------------------
                           1844 ; Function setupbullet
                           1845 ; ---------------------------------
   01C4                    1846 ___setupbullet_start:
   01C4                    1847 _setupbullet:
   01C4 C5                 1848 	push	bc
   01C5 E8 FD              1849 	lda	sp,-3(sp)
                           1850 ;	main.c 74
                           1851 ; genPlus
                           1852 ; AOP_STK for _setupbullet_sloc0_1_0
                           1853 ; genPlusIncr
                           1854 ;	genPlusIncr failed
   01C7 11 D0 00           1855 	ld	de,#_bullet + 0
   01CA 21 04 00           1856 	ld	hl,#0x0004
   01CD 19                 1857 	add	hl,de
   01CE 7D                 1858 	ld	a,l
   01CF 54                 1859 	ld	d,h
   01D0 F8 01              1860 	lda	hl,1(sp)
   01D2 22                 1861 	ld	(hl+),a
   01D3 72                 1862 	ld	(hl),d
                           1863 ; genAssign (pointer)
                           1864 ; AOP_STK for _setupbullet_sloc0_1_0
   01D4 2B                 1865 	dec	hl
   01D5 5E                 1866 	ld	e,(hl)
   01D6 23                 1867 	inc	hl
   01D7 56                 1868 	ld	d,(hl)
   01D8 3E 50              1869 	ld	a,#0x50
   01DA 12                 1870 	ld	(de),a
                           1871 ;	main.c 75
                           1872 ; genPlus
                           1873 ; genPlusIncr
   01DB 01 D5 00           1874 	ld	bc,#_bullet + 0 + 5
                           1875 ; genAssign (pointer)
   01DE 3E 82              1876 	ld	a,#0x82
   01E0 02                 1877 	ld	(bc),a
                           1878 ;	main.c 76
                           1879 ; genPlus
                           1880 ; genPlusIncr
   01E1 11 D6 00           1881 	ld	de,#_bullet + 0 + 6
                           1882 ; genAssign (pointer)
   01E4 3E 10              1883 	ld	a,#0x10
   01E6 12                 1884 	ld	(de),a
                           1885 ;	main.c 77
                           1886 ; genPlus
                           1887 ; genPlusIncr
   01E7 11 D7 00           1888 	ld	de,#_bullet + 0 + 7
                           1889 ; genAssign (pointer)
   01EA 3E 10              1890 	ld	a,#0x10
   01EC 12                 1891 	ld	(de),a
                           1892 ;	main.c 79
                           1893 ; genIpush
   01ED 3E 08              1894 	ld	a,#0x08
   01EF F5                 1895 	push	af
   01F0 33                 1896 	inc	sp
                           1897 ; genIpush
   01F1 3E 08              1898 	ld	a,#0x08
   01F3 F5                 1899 	push	af
   01F4 33                 1900 	inc	sp
                           1901 ; genCall
   01F5 CD 00 00           1902 	call	_set_sprite_tile
   01F8 E8 02              1903 	lda	sp,2(sp)
                           1904 ;	main.c 80
                           1905 ; genAssign (pointer)
   01FA 11 D0 00           1906 	ld	de,#_bullet + 0
   01FD 3E 08              1907 	ld	a,#0x08
   01FF 12                 1908 	ld	(de),a
                           1909 ;	main.c 81
                           1910 ; genIpush
   0200 3E 09              1911 	ld	a,#0x09
   0202 F5                 1912 	push	af
   0203 33                 1913 	inc	sp
                           1914 ; genIpush
   0204 3E 09              1915 	ld	a,#0x09
   0206 F5                 1916 	push	af
   0207 33                 1917 	inc	sp
                           1918 ; genCall
   0208 CD 00 00           1919 	call	_set_sprite_tile
   020B E8 02              1920 	lda	sp,2(sp)
                           1921 ;	main.c 82
                           1922 ; genPlus
                           1923 ; genPlusIncr
   020D 11 D1 00           1924 	ld	de,#_bullet + 0 + 1
                           1925 ; genAssign (pointer)
   0210 3E 09              1926 	ld	a,#0x09
   0212 12                 1927 	ld	(de),a
                           1928 ;	main.c 83
                           1929 ; genIpush
   0213 3E 0A              1930 	ld	a,#0x0A
   0215 F5                 1931 	push	af
   0216 33                 1932 	inc	sp
                           1933 ; genIpush
   0217 3E 0A              1934 	ld	a,#0x0A
   0219 F5                 1935 	push	af
   021A 33                 1936 	inc	sp
                           1937 ; genCall
   021B CD 00 00           1938 	call	_set_sprite_tile
   021E E8 02              1939 	lda	sp,2(sp)
                           1940 ;	main.c 84
                           1941 ; genPlus
                           1942 ; genPlusIncr
   0220 11 D2 00           1943 	ld	de,#_bullet + 0 + 2
                           1944 ; genAssign (pointer)
   0223 3E 0A              1945 	ld	a,#0x0A
   0225 12                 1946 	ld	(de),a
                           1947 ;	main.c 85
                           1948 ; genIpush
   0226 3E 0B              1949 	ld	a,#0x0B
   0228 F5                 1950 	push	af
   0229 33                 1951 	inc	sp
                           1952 ; genIpush
   022A 3E 0B              1953 	ld	a,#0x0B
   022C F5                 1954 	push	af
   022D 33                 1955 	inc	sp
                           1956 ; genCall
   022E CD 00 00           1957 	call	_set_sprite_tile
   0231 E8 02              1958 	lda	sp,2(sp)
                           1959 ;	main.c 86
                           1960 ; genPlus
                           1961 ; genPlusIncr
   0233 11 D3 00           1962 	ld	de,#_bullet + 0 + 3
                           1963 ; genAssign (pointer)
   0236 3E 0B              1964 	ld	a,#0x0B
   0238 12                 1965 	ld	(de),a
                           1966 ;	main.c 88
                           1967 ; genPointerGet
                           1968 ; AOP_STK for _setupbullet_sloc1_1_0
   0239 0A                 1969 	ld	a,(bc)
   023A F8 00              1970 	lda	hl,0(sp)
                           1971 ; genPointerGet
                           1972 ; AOP_STK for _setupbullet_sloc0_1_0
   023C 22                 1973 	ld	(hl+),a
   023D 5E                 1974 	ld	e,(hl)
   023E 23                 1975 	inc	hl
   023F 56                 1976 	ld	d,(hl)
   0240 1A                 1977 	ld	a,(de)
   0241 4F                 1978 	ld	c,a
                           1979 ; genIpush
                           1980 ; AOP_STK for _setupbullet_sloc1_1_0
   0242 2B                 1981 	dec	hl
   0243 2B                 1982 	dec	hl
   0244 7E                 1983 	ld	a,(hl)
   0245 F5                 1984 	push	af
   0246 33                 1985 	inc	sp
                           1986 ; genIpush
   0247 79                 1987 	ld	a,c
   0248 F5                 1988 	push	af
   0249 33                 1989 	inc	sp
                           1990 ; genIpush
   024A 21 D0 00           1991 	ld	hl,#_bullet + 0
   024D E5                 1992 	push	hl
                           1993 ; genCall
   024E CD 14 00           1994 	call	_movegamecharacter
   0251 E8 04              1995 	lda	sp,4(sp)
                           1996 ; genLabel
   0253                    1997 00101$:
                           1998 ; genEndFunction
   0253 E8 03              1999 	lda	sp,3(sp)
   0255 C1                 2000 	pop	bc
   0256 C9                 2001 	ret
   0257                    2002 ___setupbullet_end:
                           2003 ;	main.c 91
                           2004 ; genLabel
                           2005 ; genFunction
                           2006 ;	---------------------------------
                           2007 ; Function main
                           2008 ; ---------------------------------
   0257                    2009 ___main_start:
   0257                    2010 _main:
   0257 C5                 2011 	push	bc
   0258 E8 F9              2012 	lda	sp,-7(sp)
                           2013 ;	main.c 93
                           2014 ; genIpush
   025A 21 00 00           2015 	ld	hl,#_GameSprites + 0
   025D E5                 2016 	push	hl
                           2017 ; genIpush
   025E 3E 0C              2018 	ld	a,#0x0C
   0260 F5                 2019 	push	af
   0261 33                 2020 	inc	sp
                           2021 ; genIpush
   0262 3E 00              2022 	ld	a,#0x00
   0264 F5                 2023 	push	af
   0265 33                 2024 	inc	sp
                           2025 ; genCall
   0266 CD 00 00           2026 	call	_set_sprite_data
   0269 E8 04              2027 	lda	sp,4(sp)
                           2028 ;	main.c 94
                           2029 ; genCall
   026B CD 9E 00           2030 	call	_setupship
                           2031 ;	main.c 95
                           2032 ; genCall
   026E CD 31 01           2033 	call	_setupbug
                           2034 ;	main.c 96
                           2035 ; genCall
   0271 CD C4 01           2036 	call	_setupbullet
                           2037 ;	main.c 98
                           2038 ; genOr
                           2039 ; AOP_SFR for _LCDC_REG
                           2040 ; Type res[4] = l[4]&r[1]
                           2041 ; Size res[1] = l[1]&r[1]
   0274 F0 00              2042 	ldh	a,(_LCDC_REG+0) ; x
   0276 F6 02              2043 	or	a,#0x02
   0278 E0 00              2044 	ldh	(_LCDC_REG+0),a
                           2045 ;	main.c 99
                           2046 ; genOr
                           2047 ; AOP_SFR for _LCDC_REG
                           2048 ; Type res[4] = l[4]&r[1]
                           2049 ; Size res[1] = l[1]&r[1]
   027A F0 00              2050 	ldh	a,(_LCDC_REG+0) ; x
   027C F6 80              2051 	or	a,#0x80
   027E E0 00              2052 	ldh	(_LCDC_REG+0),a
                           2053 ;	main.c 101
                           2054 ; genLabel
   0280                    2055 00111$:
                           2056 ;	main.c 103
                           2057 ; genCall
   0280 CD 00 00           2058 	call	_joypad
   0283 4B                 2059 	ld	c,e
                           2060 ; genAnd
   0284 79                 2061 	ld	a,c
   0285 CB 4F              2062 	bit	1,a
   0287 CA BD 02           2063 	jp	z,00102$
                           2064 ;	main.c 105
                           2065 ; genPlus
                           2066 ; AOP_STK for _main_sloc1_1_0
                           2067 ; genPlusIncr
                           2068 ;	genPlusIncr failed
   028A 11 C0 00           2069 	ld	de,#_ship + 0
   028D 21 04 00           2070 	ld	hl,#0x0004
   0290 19                 2071 	add	hl,de
   0291 7D                 2072 	ld	a,l
   0292 54                 2073 	ld	d,h
   0293 F8 04              2074 	lda	hl,4(sp)
   0295 22                 2075 	ld	(hl+),a
   0296 72                 2076 	ld	(hl),d
                           2077 ; genPointerGet
                           2078 ; AOP_STK for _main_sloc1_1_0
                           2079 ; AOP_STK for _main_sloc0_1_0
   0297 2B                 2080 	dec	hl
   0298 5E                 2081 	ld	e,(hl)
   0299 23                 2082 	inc	hl
   029A 56                 2083 	ld	d,(hl)
   029B 1A                 2084 	ld	a,(de)
   029C 23                 2085 	inc	hl
   029D 77                 2086 	ld	(hl),a
                           2087 ; genMinus
                           2088 ; AOP_STK for _main_sloc0_1_0
   029E 7E                 2089 	ld	a,(hl)
   029F C6 FE              2090 	add	a,#0xFE
   02A1 4F                 2091 	ld	c,a
                           2092 ; genAssign (pointer)
                           2093 ; AOP_STK for _main_sloc1_1_0
   02A2 2B                 2094 	dec	hl
   02A3 2B                 2095 	dec	hl
   02A4 5E                 2096 	ld	e,(hl)
   02A5 23                 2097 	inc	hl
   02A6 56                 2098 	ld	d,(hl)
   02A7 79                 2099 	ld	a,c
   02A8 12                 2100 	ld	(de),a
                           2101 ;	main.c 106
                           2102 ; genPlus
                           2103 ; genPlusIncr
   02A9 11 C5 00           2104 	ld	de,#_ship + 0 + 5
                           2105 ; genPointerGet
   02AC 1A                 2106 	ld	a,(de)
   02AD 47                 2107 	ld	b,a
                           2108 ; genIpush
   02AE 78                 2109 	ld	a,b
   02AF F5                 2110 	push	af
   02B0 33                 2111 	inc	sp
                           2112 ; genIpush
   02B1 79                 2113 	ld	a,c
   02B2 F5                 2114 	push	af
   02B3 33                 2115 	inc	sp
                           2116 ; genIpush
   02B4 21 C0 00           2117 	ld	hl,#_ship + 0
   02B7 E5                 2118 	push	hl
                           2119 ; genCall
   02B8 CD 14 00           2120 	call	_movegamecharacter
   02BB E8 04              2121 	lda	sp,4(sp)
                           2122 ; genLabel
   02BD                    2123 00102$:
                           2124 ;	main.c 108
                           2125 ; genCall
   02BD CD 00 00           2126 	call	_joypad
   02C0 4B                 2127 	ld	c,e
                           2128 ; genAnd
   02C1 79                 2129 	ld	a,c
   02C2 CB 47              2130 	bit	0,a
   02C4 CA FA 02           2131 	jp	z,00104$
                           2132 ;	main.c 110
                           2133 ; genPlus
                           2134 ; AOP_STK for _main_sloc2_1_0
                           2135 ; genPlusIncr
                           2136 ;	genPlusIncr failed
   02C7 11 C0 00           2137 	ld	de,#_ship + 0
   02CA 21 04 00           2138 	ld	hl,#0x0004
   02CD 19                 2139 	add	hl,de
   02CE 7D                 2140 	ld	a,l
   02CF 54                 2141 	ld	d,h
   02D0 F8 02              2142 	lda	hl,2(sp)
   02D2 22                 2143 	ld	(hl+),a
   02D3 72                 2144 	ld	(hl),d
                           2145 ; genPointerGet
                           2146 ; AOP_STK for _main_sloc2_1_0
                           2147 ; AOP_STK for _main_sloc1_1_0
   02D4 2B                 2148 	dec	hl
   02D5 5E                 2149 	ld	e,(hl)
   02D6 23                 2150 	inc	hl
   02D7 56                 2151 	ld	d,(hl)
   02D8 1A                 2152 	ld	a,(de)
   02D9 23                 2153 	inc	hl
   02DA 77                 2154 	ld	(hl),a
                           2155 ; genPlus
                           2156 ; AOP_STK for _main_sloc1_1_0
                           2157 ; genPlusIncr
                           2158 ;	genPlusIncr failed
   02DB 7E                 2159 	ld	a,(hl)
   02DC C6 02              2160 	add	a,#0x02
   02DE 4F                 2161 	ld	c,a
                           2162 ; genAssign (pointer)
                           2163 ; AOP_STK for _main_sloc2_1_0
   02DF 2B                 2164 	dec	hl
   02E0 2B                 2165 	dec	hl
   02E1 5E                 2166 	ld	e,(hl)
   02E2 23                 2167 	inc	hl
   02E3 56                 2168 	ld	d,(hl)
   02E4 79                 2169 	ld	a,c
   02E5 12                 2170 	ld	(de),a
                           2171 ;	main.c 111
                           2172 ; genPlus
                           2173 ; genPlusIncr
   02E6 11 C5 00           2174 	ld	de,#_ship + 0 + 5
                           2175 ; genPointerGet
   02E9 1A                 2176 	ld	a,(de)
   02EA 47                 2177 	ld	b,a
                           2178 ; genIpush
   02EB 78                 2179 	ld	a,b
   02EC F5                 2180 	push	af
   02ED 33                 2181 	inc	sp
                           2182 ; genIpush
   02EE 79                 2183 	ld	a,c
   02EF F5                 2184 	push	af
   02F0 33                 2185 	inc	sp
                           2186 ; genIpush
   02F1 21 C0 00           2187 	ld	hl,#_ship + 0
   02F4 E5                 2188 	push	hl
                           2189 ; genCall
   02F5 CD 14 00           2190 	call	_movegamecharacter
   02F8 E8 04              2191 	lda	sp,4(sp)
                           2192 ; genLabel
   02FA                    2193 00104$:
                           2194 ;	main.c 125
                           2195 ; genCall
   02FA CD 00 00           2196 	call	_joypad
   02FD 4B                 2197 	ld	c,e
                           2198 ; genAnd
   02FE 79                 2199 	ld	a,c
   02FF CB 67              2200 	bit	4,a
   0301 CA 9C 03           2201 	jp	z,00109$
                           2202 ;	main.c 128
                           2203 ; genPlus
                           2204 ; AOP_STK for _main_sloc2_1_0
                           2205 ; genPlusIncr
                           2206 ;	genPlusIncr failed
   0304 11 D0 00           2207 	ld	de,#_bullet + 0
   0307 21 05 00           2208 	ld	hl,#0x0005
   030A 19                 2209 	add	hl,de
   030B 7D                 2210 	ld	a,l
   030C 54                 2211 	ld	d,h
   030D F8 02              2212 	lda	hl,2(sp)
   030F 22                 2213 	ld	(hl+),a
   0310 72                 2214 	ld	(hl),d
                           2215 ; genPlus
                           2216 ; genPlusIncr
   0311 11 C5 00           2217 	ld	de,#_ship + 0 + 5
                           2218 ; genPointerGet
   0314 1A                 2219 	ld	a,(de)
   0315 4F                 2220 	ld	c,a
                           2221 ; genMinus
   0316 79                 2222 	ld	a,c
   0317 C6 F8              2223 	add	a,#0xF8
   0319 4F                 2224 	ld	c,a
                           2225 ; genAssign (pointer)
                           2226 ; AOP_STK for _main_sloc2_1_0
   031A 2B                 2227 	dec	hl
   031B 5E                 2228 	ld	e,(hl)
   031C 23                 2229 	inc	hl
   031D 56                 2230 	ld	d,(hl)
   031E 79                 2231 	ld	a,c
   031F 12                 2232 	ld	(de),a
                           2233 ;	main.c 129
                           2234 ; genPlus
                           2235 ; AOP_STK for _main_sloc1_1_0
                           2236 ; genPlusIncr
                           2237 ;	genPlusIncr failed
   0320 11 D0 00           2238 	ld	de,#_bullet + 0
   0323 21 04 00           2239 	ld	hl,#0x0004
   0326 19                 2240 	add	hl,de
   0327 7D                 2241 	ld	a,l
   0328 54                 2242 	ld	d,h
   0329 F8 04              2243 	lda	hl,4(sp)
   032B 22                 2244 	ld	(hl+),a
   032C 72                 2245 	ld	(hl),d
                           2246 ; genLabel
   032D                    2247 00105$:
                           2248 ; genPointerGet
                           2249 ; AOP_STK for _main_sloc2_1_0
                           2250 ; AOP_STK for _main_sloc3_1_0
   032D F8 02              2251 	lda	hl,2(sp)
   032F 5E                 2252 	ld	e,(hl)
   0330 23                 2253 	inc	hl
   0331 56                 2254 	ld	d,(hl)
   0332 1A                 2255 	ld	a,(de)
   0333 2B                 2256 	dec	hl
   0334 2B                 2257 	dec	hl
   0335 77                 2258 	ld	(hl),a
                           2259 ; genCmpLt
                           2260 ; AOP_STK for _main_sloc3_1_0
                           2261 ; AOP_STK for _main_sloc0_1_0
   0336 7E                 2262 	ld	a,(hl)
   0337 FE 1E              2263 	cp	#0x1E
   0339 3E 00              2264 	ld	a,#0x00
   033B 17                 2265 	rla
   033C F8 06              2266 	lda	hl,6(sp)
   033E 77                 2267 	ld	(hl),a
                           2268 ; genIfx
                           2269 ; AOP_STK for _main_sloc0_1_0
                           2270 ; Removed redundent or a,a
   033F AF                 2271 	xor	a,a
   0340 B6                 2272 	or	a,(hl)
   0341 C2 79 03           2273 	jp	nz,00107$
                           2274 ;	main.c 131
                           2275 ; genPointerGet
                           2276 ; AOP_STK for _main_sloc2_1_0
                           2277 ; AOP_STK for _main_sloc4_1_0
   0344 F8 02              2278 	lda	hl,2(sp)
   0346 5E                 2279 	ld	e,(hl)
   0347 23                 2280 	inc	hl
   0348 56                 2281 	ld	d,(hl)
   0349 1A                 2282 	ld	a,(de)
   034A F8 00              2283 	lda	hl,0(sp)
   034C 77                 2284 	ld	(hl),a
                           2285 ; genMinus
                           2286 ; AOP_STK for _main_sloc4_1_0
   034D 7E                 2287 	ld	a,(hl)
   034E C6 FB              2288 	add	a,#0xFB
   0350 4F                 2289 	ld	c,a
                           2290 ; genAssign (pointer)
                           2291 ; AOP_STK for _main_sloc2_1_0
   0351 23                 2292 	inc	hl
   0352 23                 2293 	inc	hl
   0353 5E                 2294 	ld	e,(hl)
   0354 23                 2295 	inc	hl
   0355 56                 2296 	ld	d,(hl)
   0356 79                 2297 	ld	a,c
   0357 12                 2298 	ld	(de),a
                           2299 ;	main.c 136
                           2300 ; genPointerGet
                           2301 ; AOP_STK for _main_sloc1_1_0
   0358 23                 2302 	inc	hl
   0359 5E                 2303 	ld	e,(hl)
   035A 23                 2304 	inc	hl
   035B 56                 2305 	ld	d,(hl)
   035C 1A                 2306 	ld	a,(de)
   035D 47                 2307 	ld	b,a
                           2308 ; genIpush
   035E 79                 2309 	ld	a,c
   035F F5                 2310 	push	af
   0360 33                 2311 	inc	sp
                           2312 ; genIpush
   0361 78                 2313 	ld	a,b
   0362 F5                 2314 	push	af
   0363 33                 2315 	inc	sp
                           2316 ; genIpush
   0364 21 D0 00           2317 	ld	hl,#_bullet + 0
   0367 E5                 2318 	push	hl
                           2319 ; genCall
   0368 CD 14 00           2320 	call	_movegamecharacter
   036B E8 04              2321 	lda	sp,4(sp)
                           2322 ;	main.c 137
                           2323 ; genIpush
   036D 3E 05              2324 	ld	a,#0x05
   036F F5                 2325 	push	af
   0370 33                 2326 	inc	sp
                           2327 ; genCall
   0371 CD 00 00           2328 	call	_performantdelay
   0374 E8 01              2329 	lda	sp,1(sp)
                           2330 ; genGoto
   0376 C3 2D 03           2331 	jp	00105$
                           2332 ; genLabel
   0379                    2333 00107$:
                           2334 ;	main.c 139
                           2335 ; genAssign (pointer)
                           2336 ; AOP_STK for _main_sloc2_1_0
   0379 F8 02              2337 	lda	hl,2(sp)
   037B 5E                 2338 	ld	e,(hl)
   037C 23                 2339 	inc	hl
   037D 56                 2340 	ld	d,(hl)
   037E 3E 00              2341 	ld	a,#0x00
   0380 12                 2342 	ld	(de),a
                           2343 ;	main.c 140
                           2344 ; genPointerGet
                           2345 ; AOP_STK for _main_sloc2_1_0
   0381 2B                 2346 	dec	hl
   0382 5E                 2347 	ld	e,(hl)
   0383 23                 2348 	inc	hl
   0384 56                 2349 	ld	d,(hl)
   0385 1A                 2350 	ld	a,(de)
   0386 4F                 2351 	ld	c,a
                           2352 ; genPointerGet
                           2353 ; AOP_STK for _main_sloc1_1_0
   0387 23                 2354 	inc	hl
   0388 5E                 2355 	ld	e,(hl)
   0389 23                 2356 	inc	hl
   038A 56                 2357 	ld	d,(hl)
   038B 1A                 2358 	ld	a,(de)
   038C 47                 2359 	ld	b,a
                           2360 ; genIpush
   038D 79                 2361 	ld	a,c
   038E F5                 2362 	push	af
   038F 33                 2363 	inc	sp
                           2364 ; genIpush
   0390 78                 2365 	ld	a,b
   0391 F5                 2366 	push	af
   0392 33                 2367 	inc	sp
                           2368 ; genIpush
   0393 21 D0 00           2369 	ld	hl,#_bullet + 0
   0396 E5                 2370 	push	hl
                           2371 ; genCall
   0397 CD 14 00           2372 	call	_movegamecharacter
   039A E8 04              2373 	lda	sp,4(sp)
                           2374 ; genLabel
   039C                    2375 00109$:
                           2376 ;	main.c 142
                           2377 ; genIpush
   039C 3E 05              2378 	ld	a,#0x05
   039E F5                 2379 	push	af
   039F 33                 2380 	inc	sp
                           2381 ; genCall
   03A0 CD 00 00           2382 	call	_performantdelay
   03A3 E8 01              2383 	lda	sp,1(sp)
                           2384 ; genGoto
   03A5 C3 80 02           2385 	jp	00111$
                           2386 ; genLabel
   03A8                    2387 00113$:
                           2388 ; genEndFunction
   03A8 E8 07              2389 	lda	sp,7(sp)
   03AA C1                 2390 	pop	bc
   03AB C9                 2391 	ret
   03AC                    2392 ___main_end:
                           2393 	.area _CODE
ASxxxx Assembler V01.75  (GameBoy Z80-like CPU), page 1.

Symbol Table

    _BCPD_REG                          **** GX
    _BCPS_REG                          **** GX
    _BGP_REG                           **** GX
    _DIV_REG                           **** GX
    _DMA_REG                           **** GX
  1 _GameSprites                       0000 GR
    _HDMA1_REG                         **** GX
    _HDMA2_REG                         **** GX
    _HDMA3_REG                         **** GX
    _HDMA4_REG                         **** GX
    _HDMA5_REG                         **** GX
    _IE_REG                            **** GX
    _IF_REG                            **** GX
    _KEY1_REG                          **** GX
    _LCDC_REG                          **** GX
    _LYC_REG                           **** GX
    _LY_REG                            **** GX
    _NR10_REG                          **** GX
    _NR11_REG                          **** GX
    _NR12_REG                          **** GX
    _NR13_REG                          **** GX
    _NR14_REG                          **** GX
    _NR21_REG                          **** GX
    _NR22_REG                          **** GX
    _NR23_REG                          **** GX
    _NR24_REG                          **** GX
    _NR30_REG                          **** GX
    _NR31_REG                          **** GX
    _NR32_REG                          **** GX
    _NR33_REG                          **** GX
    _NR34_REG                          **** GX
    _NR41_REG                          **** GX
    _NR42_REG                          **** GX
    _NR43_REG                          **** GX
    _NR44_REG                          **** GX
    _NR50_REG                          **** GX
    _NR51_REG                          **** GX
    _NR52_REG                          **** GX
    _OBP0_REG                          **** GX
    _OBP1_REG                          **** GX
    _OCPD_REG                          **** GX
    _OCPS_REG                          **** GX
    _P1_REG                            **** GX
    _RP_REG                            **** GX
    _SB_REG                            **** GX
    _SCX_REG                           **** GX
    _SCY_REG                           **** GX
    _SC_REG                            **** GX
    _STAT_REG                          **** GX
    _SVBK_REG                          **** GX
    _TAC_REG                           **** GX
    _TIMA_REG                          **** GX
    _TMA_REG                           **** GX
    _VBK_REG                           **** GX
    _WX_REG                            **** GX
    _WY_REG                            **** GX
  0 ___main_end                        03AC R
  0 ___main_start                      0257 R
  0 ___movegamecharacter_end           009E R
  0 ___movegamecharacter_start         0014 R
  0 ___performantdelay_end             0014 R
  0 ___performantdelay_start           0000 R
  0 ___setupbug_end                    01C4 R
  0 ___setupbug_start                  0131 R
  0 ___setupbullet_end                 0257 R
  0 ___setupbullet_start               01C4 R
  0 ___setupship_end                   0131 R
  0 ___setupship_start                 009E R
    __cpu                              **** GX
    __io_in                            **** GX
    __io_out                           **** GX
    __io_status                        **** GX
  1 _bug                               00C8 GR
  1 _bullet                            00D0 GR
    _joypad                            **** GX
  0 _main                              0257 GR
    _move_sprite                       **** GX
  0 _movegamecharacter                 0014 GR
  0 _performantdelay                   0000 GR
    _set_sprite_data                   **** GX
    _set_sprite_tile                   **** GX
  0 _setupbug                          0131 GR
  0 _setupbullet                       01C4 GR
  0 _setupship                         009E GR
  1 _ship                              00C0 GR
  1 _spritesize                        00D8 GR
    _sys_time                          **** GX
    _wait_vbl_done                     **** GX

ASxxxx Assembler V01.75  (GameBoy Z80-like CPU), page 2.

Area Table

   0 _CODE                              size  3AC   flags 0
   1 _DATA                              size   D9   flags 0
   2 _OVERLAY                           size    0   flags 0
   3 _ISEG                              size    0   flags 0
   4 _BSEG                              size    0   flags 0
   5 _XSEG                              size    0   flags 0
   6 _GSINIT                            size  485   flags 0
   7 _GSFINAL                           size    0   flags 0
   8 _HOME                              size    0   flags 0
